---
triple:          'arm64-apple-darwin'
binary-path:     '/Users/jamirais/Desktop/MyCppCodeFolder/task1map'
relocations:
  - { offsetInCU: 0x5C, offset: 0x5C, size: 0x8, addend: 0x0, symName: __ZNSt3__1L19piecewise_constructE, symObjAddr: 0xA438, symBinAddr: 0x10000B340, symSize: 0x0 }
  - { offsetInCU: 0x301F, offset: 0x301F, size: 0x8, addend: 0x0, symName: __ZNSt3__124__put_character_sequenceB8ue170006IcNS_11char_traitsIcEEEERNS_13basic_ostreamIT_T0_EES7_PKS4_m, symObjAddr: 0x1DA0, symBinAddr: 0x100002F74, symSize: 0x1EC }
  - { offsetInCU: 0xC8C4, offset: 0xC8C4, size: 0x8, addend: 0x0, symName: __ZNSt3__17advanceB8ue170006INS_21__tree_const_iteratorINS_12__value_typeIcNS_12basic_stringIcNS_11char_traitsIcEENS_9allocatorIcEEEEEEPNS_11__tree_nodeIS9_PvEElEEllvEEvRT_T0_, symObjAddr: 0x6274, symBinAddr: 0x100007448, symSize: 0x38 }
  - { offsetInCU: 0xDBC6, offset: 0xDBC6, size: 0x8, addend: 0x0, symName: __ZNSt3__1lsB8ue170006INS_11char_traitsIcEEEERNS_13basic_ostreamIcT_EES6_PKc, symObjAddr: 0x90, symBinAddr: 0x100001264, symSize: 0x48 }
  - { offsetInCU: 0xDC0C, offset: 0xDC0C, size: 0x8, addend: 0x0, symName: __ZNSt3__1neB8ue170006IPNS_12basic_stringIcNS_11char_traitsIcEENS_9allocatorIcEEEEEEbRKNS_11__wrap_iterIT_EESC_, symObjAddr: 0xFF0, symBinAddr: 0x1000021C4, symSize: 0x34 }
  - { offsetInCU: 0xDC4F, offset: 0xDC4F, size: 0x8, addend: 0x0, symName: __ZNSt3__1lsB8ue170006IcNS_11char_traitsIcEENS_9allocatorIcEEEERNS_13basic_ostreamIT_T0_EES9_RKNS_12basic_stringIS6_S7_T1_EE, symObjAddr: 0x103C, symBinAddr: 0x100002210, symSize: 0x4C }
  - { offsetInCU: 0xDCA7, offset: 0xDCA7, size: 0x8, addend: 0x0, symName: __ZNSt3__1rsB8ue170006IcNS_11char_traitsIcEEEERNS_13basic_istreamIT_T0_EES7_RS4_, symObjAddr: 0x1088, symBinAddr: 0x10000225C, symSize: 0x190 }
  - { offsetInCU: 0xDD29, offset: 0xDD29, size: 0x8, addend: 0x0, symName: __ZNSt3__1neB8ue170006ERKNS_14__map_iteratorINS_15__tree_iteratorINS_12__value_typeIcNS_12basic_stringIcNS_11char_traitsIcEENS_9allocatorIcEEEEEEPNS_11__tree_nodeIS9_PvEElEEEESH_, symObjAddr: 0x123C, symBinAddr: 0x100002410, symSize: 0x30 }
  - { offsetInCU: 0xDD66, offset: 0xDD66, size: 0x8, addend: 0x0, symName: __ZNSt3__14endlB8ue170006IcNS_11char_traitsIcEEEERNS_13basic_ostreamIT_T0_EES7_, symObjAddr: 0x1410, symBinAddr: 0x1000025E4, symSize: 0x58 }
  - { offsetInCU: 0xDDA6, offset: 0xDDA6, size: 0x8, addend: 0x0, symName: __ZNSt3__1lsB8ue170006IcNS_11char_traitsIcEEEERNS_13basic_ostreamIT_T0_EES7_RKNS_8__iom_t5E, symObjAddr: 0x1488, symBinAddr: 0x10000265C, symSize: 0x40 }
  - { offsetInCU: 0xDDF2, offset: 0xDDF2, size: 0x8, addend: 0x0, symName: __ZNSt3__112setprecisionB8ue170006Ei, symObjAddr: 0x14C8, symBinAddr: 0x10000269C, symSize: 0x2C }
  - { offsetInCU: 0xDE1E, offset: 0xDE1E, size: 0x8, addend: 0x0, symName: __ZNSt3__15fixedB8ue170006ERNS_8ios_baseE, symObjAddr: 0x1534, symBinAddr: 0x100002708, symSize: 0x30 }
  - { offsetInCU: 0xDE4C, offset: 0xDE4C, size: 0x8, addend: 0x0, symName: __ZNSt3__1neB8ue170006ERKNS_14__map_iteratorINS_15__tree_iteratorINS_12__value_typeINS_12basic_stringIcNS_11char_traitsIcEENS_9allocatorIcEEEEdEEPNS_11__tree_nodeIS9_PvEElEEEESH_, symObjAddr: 0x1600, symBinAddr: 0x1000027D4, symSize: 0x30 }
  - { offsetInCU: 0xDE89, offset: 0xDE89, size: 0x8, addend: 0x0, symName: __ZNSt3__13getB8ue170006ILm0EKNS_12basic_stringIcNS_11char_traitsIcEENS_9allocatorIcEEEEdEERKNS_13tuple_elementIXT_ENS_4pairIT0_T1_EEE4typeERKSC_, symObjAddr: 0x1658, symBinAddr: 0x10000282C, symSize: 0x24 }
  - { offsetInCU: 0xDED3, offset: 0xDED3, size: 0x8, addend: 0x0, symName: __ZNSt3__13getB8ue170006ILm1EKNS_12basic_stringIcNS_11char_traitsIcEENS_9allocatorIcEEEEdEERKNS_13tuple_elementIXT_ENS_4pairIT0_T1_EEE4typeERKSC_, symObjAddr: 0x167C, symBinAddr: 0x100002850, symSize: 0x24 }
  - { offsetInCU: 0xDF1D, offset: 0xDF1D, size: 0x8, addend: 0x0, symName: __ZNSt3__110make_tupleB8ue170006IJRNS_12basic_stringIcNS_11char_traitsIcEENS_9allocatorIcEEEERdEEENS_5tupleIJDpNS_18__unwrap_ref_decayIT_E4typeEEEEDpOSB_, symObjAddr: 0x17A0, symBinAddr: 0x100002974, symSize: 0x40 }
  - { offsetInCU: 0xDF6A, offset: 0xDF6A, size: 0x8, addend: 0x0, symName: __ZNSt3__13getB8ue170006ILm0EJNS_12basic_stringIcNS_11char_traitsIcEENS_9allocatorIcEEEEdEEERNS_13tuple_elementIXT_ENS_5tupleIJDpT0_EEEE4typeERSB_, symObjAddr: 0x17E0, symBinAddr: 0x1000029B4, symSize: 0x24 }
  - { offsetInCU: 0xDFB2, offset: 0xDFB2, size: 0x8, addend: 0x0, symName: __ZNSt3__13getB8ue170006ILm1EJNS_12basic_stringIcNS_11char_traitsIcEENS_9allocatorIcEEEEdEEERNS_13tuple_elementIXT_ENS_5tupleIJDpT0_EEEE4typeERSB_, symObjAddr: 0x1804, symBinAddr: 0x1000029D8, symSize: 0x28 }
  - { offsetInCU: 0xE418, offset: 0xE418, size: 0x8, addend: 0x0, symName: __ZNSt3__1eqB8ue170006IPNS_12basic_stringIcNS_11char_traitsIcEENS_9allocatorIcEEEEEEbRKNS_11__wrap_iterIT_EESC_, symObjAddr: 0x1A10, symBinAddr: 0x100002BE4, symSize: 0x48 }
  - { offsetInCU: 0xE509, offset: 0xE509, size: 0x8, addend: 0x0, symName: __ZNSt3__116__pad_and_outputB8ue170006IcNS_11char_traitsIcEEEENS_19ostreambuf_iteratorIT_T0_EES6_PKS4_S8_S8_RNS_8ios_baseES4_, symObjAddr: 0x1FDC, symBinAddr: 0x1000031B0, symSize: 0x240 }
  - { offsetInCU: 0xE5D8, offset: 0xE5D8, size: 0x8, addend: 0x0, symName: __ZNSt3__112__to_addressB8ue170006IKcEEPT_S3_, symObjAddr: 0x2550, symBinAddr: 0x100003724, symSize: 0x14 }
  - { offsetInCU: 0xE640, offset: 0xE640, size: 0x8, addend: 0x0, symName: __ZNSt3__19use_facetB8ue170006INS_5ctypeIcEEEERKT_RKNS_6localeE, symObjAddr: 0x27D0, symBinAddr: 0x1000039A4, symSize: 0x2C }
  - { offsetInCU: 0xEB0D, offset: 0xEB0D, size: 0x8, addend: 0x0, symName: __ZNSt3__118__constexpr_strlenB8ue170006EPKc, symObjAddr: 0x2868, symBinAddr: 0x100003A3C, symSize: 0x24 }
  - { offsetInCU: 0xEB6C, offset: 0xEB6C, size: 0x8, addend: 0x0, symName: __ZNSt3__119__libcpp_deallocateB8ue170006EPvmm, symObjAddr: 0x2F30, symBinAddr: 0x100004104, symSize: 0x30 }
  - { offsetInCU: 0xEBB4, offset: 0xEBB4, size: 0x8, addend: 0x0, symName: __ZNSt3__127__do_deallocate_handle_sizeB8ue170006IJEEEvPvmDpT_, symObjAddr: 0x2F60, symBinAddr: 0x100004134, symSize: 0x28 }
  - { offsetInCU: 0xEBF2, offset: 0xEBF2, size: 0x8, addend: 0x0, symName: __ZNSt3__124__libcpp_operator_deleteB8ue170006IJPvEEEvDpT_, symObjAddr: 0x2F88, symBinAddr: 0x10000415C, symSize: 0x24 }
  - { offsetInCU: 0xEC27, offset: 0xEC27, size: 0x8, addend: 0x0, symName: __ZNSt3__122__make_exception_guardB8ue170006INS_6vectorINS_12basic_stringIcNS_11char_traitsIcEENS_9allocatorIcEEEENS5_IS7_EEE16__destroy_vectorEEENS_28__exception_guard_exceptionsIT_EESC_, symObjAddr: 0x37FC, symBinAddr: 0x1000049D0, symSize: 0x40 }
  - { offsetInCU: 0xEC5C, offset: 0xEC5C, size: 0x8, addend: 0x0, symName: __ZNSt3__119__allocate_at_leastB8ue170006INS_9allocatorINS_12basic_stringIcNS_11char_traitsIcEENS1_IcEEEEEEEENS_19__allocation_resultINS_16allocator_traitsIT_E7pointerEEERSA_m, symObjAddr: 0x3C0C, symBinAddr: 0x100004DE0, symSize: 0x40 }
  - { offsetInCU: 0xEC9F, offset: 0xEC9F, size: 0x8, addend: 0x0, symName: __ZNSt3__13minB8ue170006ImEERKT_S3_S3_, symObjAddr: 0x3D64, symBinAddr: 0x100004F38, symSize: 0x2C }
  - { offsetInCU: 0xEEE3, offset: 0xEEE3, size: 0x8, addend: 0x0, symName: __ZNSt3__13minB8ue170006ImNS_6__lessIvvEEEERKT_S5_S5_T0_, symObjAddr: 0x3DF0, symBinAddr: 0x100004FC4, symSize: 0x54 }
  - { offsetInCU: 0xEF82, offset: 0xEF82, size: 0x8, addend: 0x0, symName: __ZNSt3__120__throw_length_errorB8ue170006EPKc, symObjAddr: 0x3ED0, symBinAddr: 0x1000050A4, symSize: 0x64 }
  - { offsetInCU: 0xEFAC, offset: 0xEFAC, size: 0x8, addend: 0x0, symName: __ZNSt3__117__libcpp_allocateB8ue170006Emm, symObjAddr: 0x4044, symBinAddr: 0x100005218, symSize: 0x28 }
  - { offsetInCU: 0xEFE9, offset: 0xEFE9, size: 0x8, addend: 0x0, symName: __ZNSt3__121__libcpp_operator_newB8ue170006IJmEEEPvDpT_, symObjAddr: 0x406C, symBinAddr: 0x100005240, symSize: 0x24 }
  - { offsetInCU: 0xF022, offset: 0xF022, size: 0x8, addend: 0x0, symName: __ZNSt3__112__to_addressB8ue170006INS_12basic_stringIcNS_11char_traitsIcEENS_9allocatorIcEEEEEEPT_S8_, symObjAddr: 0x4188, symBinAddr: 0x10000535C, symSize: 0x14 }
  - { offsetInCU: 0xF057, offset: 0xF057, size: 0x8, addend: 0x0, symName: __ZNSt3__130__uninitialized_allocator_copyB8ue170006INS_9allocatorINS_12basic_stringIcNS_11char_traitsIcEENS1_IcEEEEEEPKS6_S9_PS6_EET2_RT_T0_T1_SB_, symObjAddr: 0x4238, symBinAddr: 0x10000540C, symSize: 0x80 }
  - { offsetInCU: 0xF0F4, offset: 0xF0F4, size: 0x8, addend: 0x0, symName: __ZNSt3__114__unwrap_rangeB8ue170006IPKNS_12basic_stringIcNS_11char_traitsIcEENS_9allocatorIcEEEES8_EENS_4pairIT0_SA_EET_SC_, symObjAddr: 0x4330, symBinAddr: 0x100005504, symSize: 0x60 }
  - { offsetInCU: 0xF140, offset: 0xF140, size: 0x8, addend: 0x0, symName: __ZNSt3__135__uninitialized_allocator_copy_implB8ue170006INS_9allocatorINS_12basic_stringIcNS_11char_traitsIcEENS1_IcEEEEEEPKS6_S9_PS6_EET2_RT_T0_T1_SB_, symObjAddr: 0x4390, symBinAddr: 0x100005564, symSize: 0xF4 }
  - { offsetInCU: 0xF1DE, offset: 0xF1DE, size: 0x8, addend: 0x0, symName: __ZNSt3__113__unwrap_iterB8ue170006IPNS_12basic_stringIcNS_11char_traitsIcEENS_9allocatorIcEEEENS_18__unwrap_iter_implIS7_Lb1EEELi0EEEDTclsrT0_8__unwrapclsr3stdE7declvalIT_EEEESB_, symObjAddr: 0x4484, symBinAddr: 0x100005658, symSize: 0x24 }
  - { offsetInCU: 0xF222, offset: 0xF222, size: 0x8, addend: 0x0, symName: __ZNSt3__113__rewrap_iterB8ue170006IPNS_12basic_stringIcNS_11char_traitsIcEENS_9allocatorIcEEEES7_NS_18__unwrap_iter_implIS7_Lb1EEEEET_SA_T0_, symObjAddr: 0x44A8, symBinAddr: 0x10000567C, symSize: 0x3C }
  - { offsetInCU: 0xF277, offset: 0xF277, size: 0x8, addend: 0x0, symName: __ZNSt3__19make_pairB8ue170006IPKNS_12basic_stringIcNS_11char_traitsIcEENS_9allocatorIcEEEES8_EENS_4pairINS_18__unwrap_ref_decayIT_E4typeENSA_IT0_E4typeEEEOSB_OSE_, symObjAddr: 0x44E4, symBinAddr: 0x1000056B8, symSize: 0x38 }
  - { offsetInCU: 0xF2C6, offset: 0xF2C6, size: 0x8, addend: 0x0, symName: __ZNSt3__113__unwrap_iterB8ue170006IPKNS_12basic_stringIcNS_11char_traitsIcEENS_9allocatorIcEEEENS_18__unwrap_iter_implIS8_Lb1EEELi0EEEDTclsrT0_8__unwrapclsr3stdE7declvalIT_EEEESC_, symObjAddr: 0x451C, symBinAddr: 0x1000056F0, symSize: 0x24 }
  - { offsetInCU: 0xF431, offset: 0xF431, size: 0x8, addend: 0x0, symName: __ZNSt3__112__to_addressB8ue170006IKNS_12basic_stringIcNS_11char_traitsIcEENS_9allocatorIcEEEEEEPT_S9_, symObjAddr: 0x45D4, symBinAddr: 0x1000057A8, symSize: 0x14 }
  - { offsetInCU: 0xF466, offset: 0xF466, size: 0x8, addend: 0x0, symName: __ZNSt3__122__make_exception_guardB8ue170006INS_29_AllocatorDestroyRangeReverseINS_9allocatorINS_12basic_stringIcNS_11char_traitsIcEENS2_IcEEEEEEPS7_EEEENS_28__exception_guard_exceptionsIT_EESC_, symObjAddr: 0x45E8, symBinAddr: 0x1000057BC, symSize: 0x4C }
  - { offsetInCU: 0xF49C, offset: 0xF49C, size: 0x8, addend: 0x0, symName: __ZNSt3__119__allocator_destroyB8ue170006INS_9allocatorINS_12basic_stringIcNS_11char_traitsIcEENS1_IcEEEEEENS_16reverse_iteratorIPS6_EESA_EEvRT_T0_T1_, symObjAddr: 0x4878, symBinAddr: 0x100005A4C, symSize: 0x70 }
  - { offsetInCU: 0xF4FF, offset: 0xF4FF, size: 0x8, addend: 0x0, symName: __ZNSt3__1neB8ue170006IPNS_12basic_stringIcNS_11char_traitsIcEENS_9allocatorIcEEEES7_EEbRKNS_16reverse_iteratorIT_EERKNS8_IT0_EE, symObjAddr: 0x491C, symBinAddr: 0x100005AF0, symSize: 0x48 }
  - { offsetInCU: 0xF54B, offset: 0xF54B, size: 0x8, addend: 0x0, symName: __ZNSt3__112__to_addressB8ue170006INS_16reverse_iteratorIPNS_12basic_stringIcNS_11char_traitsIcEENS_9allocatorIcEEEEEEvEEu7__decayIDTclsr19__to_address_helperIT_EE6__callclsr3stdE7declvalIRKSA_EEEEESC_, symObjAddr: 0x4990, symBinAddr: 0x100005B64, symSize: 0x24 }
  - { offsetInCU: 0xF621, offset: 0xF621, size: 0x8, addend: 0x0, symName: __ZNSt3__1eqB8ue170006ERKNS_21__tree_const_iteratorINS_12__value_typeIcNS_12basic_stringIcNS_11char_traitsIcEENS_9allocatorIcEEEEEEPNS_11__tree_nodeIS8_PvEElEESF_, symObjAddr: 0x5C48, symBinAddr: 0x100006E1C, symSize: 0x30 }
  - { offsetInCU: 0xF65E, offset: 0xF65E, size: 0x8, addend: 0x0, symName: __ZNSt3__14nextB8ue170006INS_21__tree_const_iteratorINS_12__value_typeIcNS_12basic_stringIcNS_11char_traitsIcEENS_9allocatorIcEEEEEEPNS_11__tree_nodeIS9_PvEElEEEENS_9enable_ifIXsr29__has_input_iterator_categoryIT_EE5valueESG_E4typeESG_NS_15iterator_traitsISG_E15difference_typeE, symObjAddr: 0x5FB8, symBinAddr: 0x10000718C, symSize: 0x3C }
  - { offsetInCU: 0xF6A1, offset: 0xF6A1, size: 0x8, addend: 0x0, symName: __ZNSt3__116__tree_prev_iterB8ue170006IPNS_16__tree_node_baseIPvEEPNS_15__tree_end_nodeIS4_EEEET_T0_, symObjAddr: 0x6100, symBinAddr: 0x1000072D4, symSize: 0xA4 }
  - { offsetInCU: 0xF6ED, offset: 0xF6ED, size: 0x8, addend: 0x0, symName: __ZNSt3__110__tree_maxB8ue170006IPNS_16__tree_node_baseIPvEEEET_S5_, symObjAddr: 0x61A4, symBinAddr: 0x100007378, symSize: 0x40 }
  - { offsetInCU: 0xF722, offset: 0xF722, size: 0x8, addend: 0x0, symName: __ZNSt3__120__tree_is_left_childB8ue170006IPNS_16__tree_node_baseIPvEEEEbT_, symObjAddr: 0x61E4, symBinAddr: 0x1000073B8, symSize: 0x2C }
  - { offsetInCU: 0xF757, offset: 0xF757, size: 0x8, addend: 0x0, symName: __ZNSt3__121__convert_to_integralB8ue170006El, symObjAddr: 0x62AC, symBinAddr: 0x100007480, symSize: 0x14 }
  - { offsetInCU: 0xF783, offset: 0xF783, size: 0x8, addend: 0x0, symName: __ZNSt3__19__advanceB8ue170006INS_21__tree_const_iteratorINS_12__value_typeIcNS_12basic_stringIcNS_11char_traitsIcEENS_9allocatorIcEEEEEEPNS_11__tree_nodeIS9_PvEElEEEEvRT_NS_15iterator_traitsISF_E15difference_typeENS_26bidirectional_iterator_tagE, symObjAddr: 0x62C0, symBinAddr: 0x100007494, symSize: 0xA4 }
  - { offsetInCU: 0xF7CC, offset: 0xF7CC, size: 0x8, addend: 0x0, symName: __ZNSt3__116__tree_next_iterB8ue170006IPNS_15__tree_end_nodeIPNS_16__tree_node_baseIPvEEEES5_EET_T0_, symObjAddr: 0x639C, symBinAddr: 0x100007570, symSize: 0x80 }
  - { offsetInCU: 0xF80A, offset: 0xF80A, size: 0x8, addend: 0x0, symName: __ZNSt3__110__tree_minB8ue170006IPNS_16__tree_node_baseIPvEEEET_S5_, symObjAddr: 0x641C, symBinAddr: 0x1000075F0, symSize: 0x40 }
  - { offsetInCU: 0xF85D, offset: 0xF85D, size: 0x8, addend: 0x0, symName: __ZNSt3__127__tree_balance_after_insertB8ue170006IPNS_16__tree_node_baseIPvEEEEvT_S5_, symObjAddr: 0x6920, symBinAddr: 0x100007AF4, symSize: 0x27C }
  - { offsetInCU: 0xF8D9, offset: 0xF8D9, size: 0x8, addend: 0x0, symName: __ZNSt3__118__tree_left_rotateB8ue170006IPNS_16__tree_node_baseIPvEEEEvT_, symObjAddr: 0x6BC4, symBinAddr: 0x100007D98, symSize: 0xD8 }
  - { offsetInCU: 0xF91B, offset: 0xF91B, size: 0x8, addend: 0x0, symName: __ZNSt3__119__tree_right_rotateB8ue170006IPNS_16__tree_node_baseIPvEEEEvT_, symObjAddr: 0x6C9C, symBinAddr: 0x100007E70, symSize: 0xCC }
  - { offsetInCU: 0xFEE8, offset: 0xFEE8, size: 0x8, addend: 0x0, symName: __ZNSt3__1neB8ue170006ERKNS_15__tree_iteratorINS_12__value_typeIcNS_12basic_stringIcNS_11char_traitsIcEENS_9allocatorIcEEEEEEPNS_11__tree_nodeIS8_PvEElEESF_, symObjAddr: 0x75A8, symBinAddr: 0x10000877C, symSize: 0x34 }
  - { offsetInCU: 0xFF25, offset: 0xFF25, size: 0x8, addend: 0x0, symName: __ZNSt3__1eqB8ue170006ERKNS_15__tree_iteratorINS_12__value_typeIcNS_12basic_stringIcNS_11char_traitsIcEENS_9allocatorIcEEEEEEPNS_11__tree_nodeIS8_PvEElEESF_, symObjAddr: 0x7604, symBinAddr: 0x1000087D8, symSize: 0x30 }
  - { offsetInCU: 0xFF99, offset: 0xFF99, size: 0x8, addend: 0x0, symName: __ZNSt3__116forward_as_tupleB8ue170006IJRKNS_12basic_stringIcNS_11char_traitsIcEENS_9allocatorIcEEEEEEENS_5tupleIJDpOT_EEESC_, symObjAddr: 0x774C, symBinAddr: 0x100008920, symSize: 0x2C }
  - { offsetInCU: 0xFFD2, offset: 0xFFD2, size: 0x8, addend: 0x0, symName: __ZNSt3__116forward_as_tupleB8ue170006IJEEENS_5tupleIJDpOT_EEES4_, symObjAddr: 0x7778, symBinAddr: 0x10000894C, symSize: 0x4 }
  - { offsetInCU: 0xFFF6, offset: 0xFFF6, size: 0x8, addend: 0x0, symName: __ZNSt3__1ltB8ue170006IcNS_11char_traitsIcEENS_9allocatorIcEEEEbRKNS_12basic_stringIT_T0_T1_EESB_, symObjAddr: 0x7D84, symBinAddr: 0x100008F58, symSize: 0x38 }
  - { offsetInCU: 0x1006C, offset: 0x1006C, size: 0x8, addend: 0x0, symName: __ZNSt3__13getB8ue170006ILm0EJRKNS_12basic_stringIcNS_11char_traitsIcEENS_9allocatorIcEEEEEEERNS_13tuple_elementIXT_ENS_5tupleIJDpT0_EEEE4typeERSD_, symObjAddr: 0x8474, symBinAddr: 0x100009648, symSize: 0x24 }
  - { offsetInCU: 0x10148, offset: 0x10148, size: 0x8, addend: 0x0, symName: __ZNSt3__1neB8ue170006ERKNS_15__tree_iteratorINS_12__value_typeINS_12basic_stringIcNS_11char_traitsIcEENS_9allocatorIcEEEEdEEPNS_11__tree_nodeIS8_PvEElEESF_, symObjAddr: 0x9800, symBinAddr: 0x10000A9D4, symSize: 0x34 }
  - { offsetInCU: 0x10185, offset: 0x10185, size: 0x8, addend: 0x0, symName: __ZNSt3__1eqB8ue170006ERKNS_15__tree_iteratorINS_12__value_typeINS_12basic_stringIcNS_11char_traitsIcEENS_9allocatorIcEEEEdEEPNS_11__tree_nodeIS8_PvEElEESF_, symObjAddr: 0x9834, symBinAddr: 0x10000AA08, symSize: 0x30 }
  - { offsetInCU: 0x101C2, offset: 0x101C2, size: 0x8, addend: 0x0, symName: __ZNSt3__116forward_as_tupleB8ue170006IJRKcEEENS_5tupleIJDpOT_EEES6_, symObjAddr: 0x999C, symBinAddr: 0x10000AB70, symSize: 0x2C }
  - { offsetInCU: 0x101FB, offset: 0x101FB, size: 0x8, addend: 0x0, symName: __ZNSt3__13getB8ue170006ILm0EJRKcEEERNS_13tuple_elementIXT_ENS_5tupleIJDpT0_EEEE4typeERS7_, symObjAddr: 0x9C68, symBinAddr: 0x10000AE3C, symSize: 0x24 }
  - { offsetInCU: 0x10610, offset: 0x10610, size: 0x8, addend: 0x0, symName: __ZSt28__throw_bad_array_new_lengthB8ue170006v, symObjAddr: 0x4010, symBinAddr: 0x1000051E4, symSize: 0x34 }
  - { offsetInCU: 0x11F86, offset: 0x11F86, size: 0x8, addend: 0x0, symName: __Z7toupperi, symObjAddr: 0x1218, symBinAddr: 0x1000023EC, symSize: 0x24 }
  - { offsetInCU: 0x13A0D, offset: 0x13A0D, size: 0x8, addend: 0x0, symName: __Z19displayWeatherCodesv, symObjAddr: 0x0, symBinAddr: 0x1000011D4, symSize: 0x90 }
  - { offsetInCU: 0x13A27, offset: 0x13A27, size: 0x8, addend: 0x0, symName: _main, symObjAddr: 0xD8, symBinAddr: 0x1000012AC, symSize: 0xCCC }
  - { offsetInCU: 0x13BE1, offset: 0x13BE1, size: 0x8, addend: 0x0, symName: __ZNSt3__13mapINS_12basic_stringIcNS_11char_traitsIcEENS_9allocatorIcEEEEdNS_4lessIS6_EENS4_INS_4pairIKS6_dEEEEEC1B8ue170006Ev, symObjAddr: 0xDA4, symBinAddr: 0x100001F78, symSize: 0x2C }
  - { offsetInCU: 0x13C0B, offset: 0x13C0B, size: 0x8, addend: 0x0, symName: __ZNSt3__13mapINS_12basic_stringIcNS_11char_traitsIcEENS_9allocatorIcEEEEcNS_4lessIS6_EENS4_INS_4pairIKS6_cEEEEEC1B8ue170006Ev, symObjAddr: 0xDD0, symBinAddr: 0x100001FA4, symSize: 0x2C }
  - { offsetInCU: 0x13C3A, offset: 0x13C3A, size: 0x8, addend: 0x0, symName: __ZNSt3__112basic_stringIcNS_11char_traitsIcEENS_9allocatorIcEEEC1B8ue170006ILi0EEEPKc, symObjAddr: 0xDFC, symBinAddr: 0x100001FD0, symSize: 0x34 }
  - { offsetInCU: 0x13C79, offset: 0x13C79, size: 0x8, addend: 0x0, symName: __ZNSt3__16vectorINS_12basic_stringIcNS_11char_traitsIcEENS_9allocatorIcEEEENS4_IS6_EEEC1B8ue170006ESt16initializer_listIS6_E, symObjAddr: 0xE30, symBinAddr: 0x100002004, symSize: 0x3C }
  - { offsetInCU: 0x13CCF, offset: 0x13CCF, size: 0x8, addend: 0x0, symName: __ZNSt3__14pairIKcNS_12basic_stringIcNS_11char_traitsIcEENS_9allocatorIcEEEEEC1B8ue170006IcRA6_S1_LPv0EEEOT_OT0_, symObjAddr: 0xE6C, symBinAddr: 0x100002040, symSize: 0x3C }
  - { offsetInCU: 0x13D43, offset: 0x13D43, size: 0x8, addend: 0x0, symName: __ZNSt3__14pairIKcNS_12basic_stringIcNS_11char_traitsIcEENS_9allocatorIcEEEEEC1B8ue170006IcRA7_S1_LPv0EEEOT_OT0_, symObjAddr: 0xEA8, symBinAddr: 0x10000207C, symSize: 0x3C }
  - { offsetInCU: 0x13DB7, offset: 0x13DB7, size: 0x8, addend: 0x0, symName: __ZNSt3__14pairIKcNS_12basic_stringIcNS_11char_traitsIcEENS_9allocatorIcEEEEEC1B8ue170006IcRA14_S1_LPv0EEEOT_OT0_, symObjAddr: 0xEE4, symBinAddr: 0x1000020B8, symSize: 0x3C }
  - { offsetInCU: 0x13E15, offset: 0x13E15, size: 0x8, addend: 0x0, symName: __ZNSt3__14pairIKcNS_12basic_stringIcNS_11char_traitsIcEENS_9allocatorIcEEEEED1Ev, symObjAddr: 0xF20, symBinAddr: 0x1000020F4, symSize: 0x2C }
  - { offsetInCU: 0x13E41, offset: 0x13E41, size: 0x8, addend: 0x0, symName: __ZNSt3__13mapIcNS_12basic_stringIcNS_11char_traitsIcEENS_9allocatorIcEEEENS_4lessIcEENS4_INS_4pairIKcS6_EEEEEC1B8ue170006ESt16initializer_listISB_ERKS8_, symObjAddr: 0xF4C, symBinAddr: 0x100002120, symSize: 0x44 }
  - { offsetInCU: 0x13E89, offset: 0x13E89, size: 0x8, addend: 0x0, symName: __ZNSt3__16vectorINS_12basic_stringIcNS_11char_traitsIcEENS_9allocatorIcEEEENS4_IS6_EEE5beginB8ue170006Ev, symObjAddr: 0xF90, symBinAddr: 0x100002164, symSize: 0x30 }
  - { offsetInCU: 0x13EB1, offset: 0x13EB1, size: 0x8, addend: 0x0, symName: __ZNSt3__16vectorINS_12basic_stringIcNS_11char_traitsIcEENS_9allocatorIcEEEENS4_IS6_EEE3endB8ue170006Ev, symObjAddr: 0xFC0, symBinAddr: 0x100002194, symSize: 0x30 }
  - { offsetInCU: 0x13ED9, offset: 0x13ED9, size: 0x8, addend: 0x0, symName: __ZNKSt3__111__wrap_iterIPNS_12basic_stringIcNS_11char_traitsIcEENS_9allocatorIcEEEEEdeB8ue170006Ev, symObjAddr: 0x1024, symBinAddr: 0x1000021F8, symSize: 0x18 }
  - { offsetInCU: 0x13EFF, offset: 0x13EFF, size: 0x8, addend: 0x0, symName: __ZNSt3__13mapIcNS_12basic_stringIcNS_11char_traitsIcEENS_9allocatorIcEEEENS_4lessIcEENS4_INS_4pairIKcS6_EEEEE4findB8ue170006ERSA_, symObjAddr: 0x126C, symBinAddr: 0x100002440, symSize: 0x40 }
  - { offsetInCU: 0x13F34, offset: 0x13F34, size: 0x8, addend: 0x0, symName: __ZNSt3__13mapIcNS_12basic_stringIcNS_11char_traitsIcEENS_9allocatorIcEEEENS_4lessIcEENS4_INS_4pairIKcS6_EEEEE3endB8ue170006Ev, symObjAddr: 0x12AC, symBinAddr: 0x100002480, symSize: 0x38 }
  - { offsetInCU: 0x13F5A, offset: 0x13F5A, size: 0x8, addend: 0x0, symName: __ZNSt3__13mapINS_12basic_stringIcNS_11char_traitsIcEENS_9allocatorIcEEEEdNS_4lessIS6_EENS4_INS_4pairIKS6_dEEEEEixERSA_, symObjAddr: 0x12E4, symBinAddr: 0x1000024B8, symSize: 0x80 }
  - { offsetInCU: 0x13F91, offset: 0x13F91, size: 0x8, addend: 0x0, symName: __ZNSt3__13mapINS_12basic_stringIcNS_11char_traitsIcEENS_9allocatorIcEEEEcNS_4lessIS6_EENS4_INS_4pairIKS6_cEEEEEixERSA_, symObjAddr: 0x1364, symBinAddr: 0x100002538, symSize: 0x80 }
  - { offsetInCU: 0x13FC8, offset: 0x13FC8, size: 0x8, addend: 0x0, symName: __ZNSt3__113basic_ostreamIcNS_11char_traitsIcEEElsB8ue170006EPFRS3_S4_E, symObjAddr: 0x13E4, symBinAddr: 0x1000025B8, symSize: 0x2C }
  - { offsetInCU: 0x13FFC, offset: 0x13FFC, size: 0x8, addend: 0x0, symName: __ZNSt3__111__wrap_iterIPNS_12basic_stringIcNS_11char_traitsIcEENS_9allocatorIcEEEEEppB8ue170006Ev, symObjAddr: 0x1468, symBinAddr: 0x10000263C, symSize: 0x20 }
  - { offsetInCU: 0x14022, offset: 0x14022, size: 0x8, addend: 0x0, symName: __ZNSt3__113basic_ostreamIcNS_11char_traitsIcEEElsB8ue170006EPFRNS_8ios_baseES5_E, symObjAddr: 0x14F4, symBinAddr: 0x1000026C8, symSize: 0x40 }
  - { offsetInCU: 0x14056, offset: 0x14056, size: 0x8, addend: 0x0, symName: __ZNSt3__112basic_stringIcNS_11char_traitsIcEENS_9allocatorIcEEEC1B8ue170006Ev, symObjAddr: 0x1564, symBinAddr: 0x100002738, symSize: 0x2C }
  - { offsetInCU: 0x14080, offset: 0x14080, size: 0x8, addend: 0x0, symName: __ZNSt3__13mapINS_12basic_stringIcNS_11char_traitsIcEENS_9allocatorIcEEEEdNS_4lessIS6_EENS4_INS_4pairIKS6_dEEEEE5beginB8ue170006Ev, symObjAddr: 0x1590, symBinAddr: 0x100002764, symSize: 0x38 }
  - { offsetInCU: 0x140A6, offset: 0x140A6, size: 0x8, addend: 0x0, symName: __ZNSt3__13mapINS_12basic_stringIcNS_11char_traitsIcEENS_9allocatorIcEEEEdNS_4lessIS6_EENS4_INS_4pairIKS6_dEEEEE3endB8ue170006Ev, symObjAddr: 0x15C8, symBinAddr: 0x10000279C, symSize: 0x38 }
  - { offsetInCU: 0x140CC, offset: 0x140CC, size: 0x8, addend: 0x0, symName: __ZNKSt3__114__map_iteratorINS_15__tree_iteratorINS_12__value_typeINS_12basic_stringIcNS_11char_traitsIcEENS_9allocatorIcEEEEdEEPNS_11__tree_nodeIS9_PvEElEEEdeB8ue170006Ev, symObjAddr: 0x1630, symBinAddr: 0x100002804, symSize: 0x28 }
  - { offsetInCU: 0x140F2, offset: 0x140F2, size: 0x8, addend: 0x0, symName: __ZNSt3__112basic_stringIcNS_11char_traitsIcEENS_9allocatorIcEEEaSB8ue170006EPKc, symObjAddr: 0x16A0, symBinAddr: 0x100002874, symSize: 0x2C }
  - { offsetInCU: 0x14127, offset: 0x14127, size: 0x8, addend: 0x0, symName: __ZNSt3__13mapIcNS_12basic_stringIcNS_11char_traitsIcEENS_9allocatorIcEEEENS_4lessIcEENS4_INS_4pairIKcS6_EEEEEixERSA_, symObjAddr: 0x16CC, symBinAddr: 0x1000028A0, symSize: 0x80 }
  - { offsetInCU: 0x1415E, offset: 0x1415E, size: 0x8, addend: 0x0, symName: __ZNSt3__114__map_iteratorINS_15__tree_iteratorINS_12__value_typeINS_12basic_stringIcNS_11char_traitsIcEENS_9allocatorIcEEEEdEEPNS_11__tree_nodeIS9_PvEElEEEppB8ue170006Ev, symObjAddr: 0x174C, symBinAddr: 0x100002920, symSize: 0x2C }
  - { offsetInCU: 0x14184, offset: 0x14184, size: 0x8, addend: 0x0, symName: __ZNKSt3__13mapINS_12basic_stringIcNS_11char_traitsIcEENS_9allocatorIcEEEEdNS_4lessIS6_EENS4_INS_4pairIKS6_dEEEEE4sizeB8ue170006Ev, symObjAddr: 0x1778, symBinAddr: 0x10000294C, symSize: 0x28 }
  - { offsetInCU: 0x1422C, offset: 0x1422C, size: 0x8, addend: 0x0, symName: __ZNSt3__15tupleIJNS_12basic_stringIcNS_11char_traitsIcEENS_9allocatorIcEEEEdEED1Ev, symObjAddr: 0x182C, symBinAddr: 0x100002A00, symSize: 0x2C }
  - { offsetInCU: 0x14259, offset: 0x14259, size: 0x8, addend: 0x0, symName: __ZNSt3__13mapIcNS_12basic_stringIcNS_11char_traitsIcEENS_9allocatorIcEEEENS_4lessIcEENS4_INS_4pairIKcS6_EEEEED1B8ue170006Ev, symObjAddr: 0x1858, symBinAddr: 0x100002A2C, symSize: 0x2C }
  - { offsetInCU: 0x14283, offset: 0x14283, size: 0x8, addend: 0x0, symName: __ZNSt3__16vectorINS_12basic_stringIcNS_11char_traitsIcEENS_9allocatorIcEEEENS4_IS6_EEED1B8ue170006Ev, symObjAddr: 0x1884, symBinAddr: 0x100002A58, symSize: 0x2C }
  - { offsetInCU: 0x142AD, offset: 0x142AD, size: 0x8, addend: 0x0, symName: __ZNSt3__13mapINS_12basic_stringIcNS_11char_traitsIcEENS_9allocatorIcEEEEcNS_4lessIS6_EENS4_INS_4pairIKS6_cEEEEED1B8ue170006Ev, symObjAddr: 0x18B0, symBinAddr: 0x100002A84, symSize: 0x2C }
  - { offsetInCU: 0x142D7, offset: 0x142D7, size: 0x8, addend: 0x0, symName: __ZNSt3__13mapINS_12basic_stringIcNS_11char_traitsIcEENS_9allocatorIcEEEEdNS_4lessIS6_EENS4_INS_4pairIKS6_dEEEEED1B8ue170006Ev, symObjAddr: 0x18DC, symBinAddr: 0x100002AB0, symSize: 0x2C }
  - { offsetInCU: 0x14301, offset: 0x14301, size: 0x8, addend: 0x0, symName: __ZNSt3__14pairIKcNS_12basic_stringIcNS_11char_traitsIcEENS_9allocatorIcEEEEEC2B8ue170006IcRA6_S1_LPv0EEEOT_OT0_, symObjAddr: 0x1908, symBinAddr: 0x100002ADC, symSize: 0x48 }
  - { offsetInCU: 0x1435F, offset: 0x1435F, size: 0x8, addend: 0x0, symName: __ZNSt3__14pairIKcNS_12basic_stringIcNS_11char_traitsIcEENS_9allocatorIcEEEEEC2B8ue170006IcRA7_S1_LPv0EEEOT_OT0_, symObjAddr: 0x1950, symBinAddr: 0x100002B24, symSize: 0x48 }
  - { offsetInCU: 0x143BD, offset: 0x143BD, size: 0x8, addend: 0x0, symName: __ZNSt3__14pairIKcNS_12basic_stringIcNS_11char_traitsIcEENS_9allocatorIcEEEEEC2B8ue170006IcRA14_S1_LPv0EEEOT_OT0_, symObjAddr: 0x1998, symBinAddr: 0x100002B6C, symSize: 0x48 }
  - { offsetInCU: 0x1441B, offset: 0x1441B, size: 0x8, addend: 0x0, symName: __ZNSt3__14pairIKcNS_12basic_stringIcNS_11char_traitsIcEENS_9allocatorIcEEEEED2Ev, symObjAddr: 0x19E0, symBinAddr: 0x100002BB4, symSize: 0x30 }
  - { offsetInCU: 0x14447, offset: 0x14447, size: 0x8, addend: 0x0, symName: __ZNKSt3__111__wrap_iterIPNS_12basic_stringIcNS_11char_traitsIcEENS_9allocatorIcEEEEE4baseB8ue170006Ev, symObjAddr: 0x1A58, symBinAddr: 0x100002C2C, symSize: 0x18 }
  - { offsetInCU: 0x1446D, offset: 0x1446D, size: 0x8, addend: 0x0, symName: __ZNSt3__18__iom_t5C1B8ue170006Ei, symObjAddr: 0x1A70, symBinAddr: 0x100002C44, symSize: 0x34 }
  - { offsetInCU: 0x144A5, offset: 0x144A5, size: 0x8, addend: 0x0, symName: __ZNSt3__18__iom_t5C2B8ue170006Ei, symObjAddr: 0x1AA4, symBinAddr: 0x100002C78, symSize: 0x20 }
  - { offsetInCU: 0x144DD, offset: 0x144DD, size: 0x8, addend: 0x0, symName: __ZNSt3__18ios_base4setfB8ue170006Ejj, symObjAddr: 0x1AC4, symBinAddr: 0x100002C98, symSize: 0x5C }
  - { offsetInCU: 0x14532, offset: 0x14532, size: 0x8, addend: 0x0, symName: __ZNSt3__18ios_base6unsetfB8ue170006Ej, symObjAddr: 0x1B20, symBinAddr: 0x100002CF4, symSize: 0x28 }
  - { offsetInCU: 0x14569, offset: 0x14569, size: 0x8, addend: 0x0, symName: __ZNSt3__110__get_pairILm0EE3getB8ue170006IKNS_12basic_stringIcNS_11char_traitsIcEENS_9allocatorIcEEEEdEERKT_RKNS_4pairISA_T0_EE, symObjAddr: 0x1B48, symBinAddr: 0x100002D1C, symSize: 0x14 }
  - { offsetInCU: 0x1459F, offset: 0x1459F, size: 0x8, addend: 0x0, symName: __ZNSt3__110__get_pairILm1EE3getB8ue170006IKNS_12basic_stringIcNS_11char_traitsIcEENS_9allocatorIcEEEEdEERKT0_RKNS_4pairIT_SA_EE, symObjAddr: 0x1B5C, symBinAddr: 0x100002D30, symSize: 0x18 }
  - { offsetInCU: 0x145D5, offset: 0x145D5, size: 0x8, addend: 0x0, symName: __ZNSt3__15tupleIJNS_12basic_stringIcNS_11char_traitsIcEENS_9allocatorIcEEEEdEEC1B8ue170006IJRS6_RdELi0EEEDpOT_, symObjAddr: 0x1B74, symBinAddr: 0x100002D48, symSize: 0x3C }
  - { offsetInCU: 0x14633, offset: 0x14633, size: 0x8, addend: 0x0, symName: __ZNSt3__15tupleIJNS_12basic_stringIcNS_11char_traitsIcEENS_9allocatorIcEEEEdEEC2B8ue170006IJRS6_RdELi0EEEDpOT_, symObjAddr: 0x1BB0, symBinAddr: 0x100002D84, symSize: 0x3C }
  - { offsetInCU: 0x14691, offset: 0x14691, size: 0x8, addend: 0x0, symName: __ZNSt3__112__tuple_implINS_15__tuple_indicesIJLm0ELm1EEEEJNS_12basic_stringIcNS_11char_traitsIcEENS_9allocatorIcEEEEdEEC1B8ue170006IJLm0ELm1EEJS8_dEJEJEJRS8_RdEEENS1_IJXspT_EEEENS_13__tuple_typesIJDpT0_EEENS1_IJXspT1_EEEENSE_IJDpT2_EEEDpOT3_, symObjAddr: 0x1BEC, symBinAddr: 0x100002DC0, symSize: 0x3C }
  - { offsetInCU: 0x14745, offset: 0x14745, size: 0x8, addend: 0x0, symName: __ZNSt3__112__tuple_implINS_15__tuple_indicesIJLm0ELm1EEEEJNS_12basic_stringIcNS_11char_traitsIcEENS_9allocatorIcEEEEdEEC2B8ue170006IJLm0ELm1EEJS8_dEJEJEJRS8_RdEEENS1_IJXspT_EEEENS_13__tuple_typesIJDpT0_EEENS1_IJXspT1_EEEENSE_IJDpT2_EEEDpOT3_, symObjAddr: 0x1C28, symBinAddr: 0x100002DFC, symSize: 0x48 }
  - { offsetInCU: 0x147F9, offset: 0x147F9, size: 0x8, addend: 0x0, symName: __ZNSt3__112__tuple_leafILm0ENS_12basic_stringIcNS_11char_traitsIcEENS_9allocatorIcEEEELb0EEC2B8ue170006IRS6_vEEOT_, symObjAddr: 0x1C70, symBinAddr: 0x100002E44, symSize: 0x34 }
  - { offsetInCU: 0x1483C, offset: 0x1483C, size: 0x8, addend: 0x0, symName: __ZNSt3__112__tuple_leafILm1EdLb0EEC2B8ue170006IRdvEEOT_, symObjAddr: 0x1CA4, symBinAddr: 0x100002E78, symSize: 0x24 }
  - { offsetInCU: 0x1487F, offset: 0x1487F, size: 0x8, addend: 0x0, symName: __ZNSt3__112__tuple_leafILm0ENS_12basic_stringIcNS_11char_traitsIcEENS_9allocatorIcEEEELb0EE3getB8ue170006Ev, symObjAddr: 0x1CC8, symBinAddr: 0x100002E9C, symSize: 0x14 }
  - { offsetInCU: 0x148A5, offset: 0x148A5, size: 0x8, addend: 0x0, symName: __ZNSt3__112__tuple_leafILm1EdLb0EE3getB8ue170006Ev, symObjAddr: 0x1CDC, symBinAddr: 0x100002EB0, symSize: 0x14 }
  - { offsetInCU: 0x148CB, offset: 0x148CB, size: 0x8, addend: 0x0, symName: __ZNSt3__15tupleIJNS_12basic_stringIcNS_11char_traitsIcEENS_9allocatorIcEEEEdEED2Ev, symObjAddr: 0x1CF0, symBinAddr: 0x100002EC4, symSize: 0x2C }
  - { offsetInCU: 0x148F8, offset: 0x148F8, size: 0x8, addend: 0x0, symName: __ZNSt3__112__tuple_implINS_15__tuple_indicesIJLm0ELm1EEEEJNS_12basic_stringIcNS_11char_traitsIcEENS_9allocatorIcEEEEdEED1Ev, symObjAddr: 0x1D1C, symBinAddr: 0x100002EF0, symSize: 0x2C }
  - { offsetInCU: 0x14925, offset: 0x14925, size: 0x8, addend: 0x0, symName: __ZNSt3__112__tuple_implINS_15__tuple_indicesIJLm0ELm1EEEEJNS_12basic_stringIcNS_11char_traitsIcEENS_9allocatorIcEEEEdEED2Ev, symObjAddr: 0x1D48, symBinAddr: 0x100002F1C, symSize: 0x2C }
  - { offsetInCU: 0x14952, offset: 0x14952, size: 0x8, addend: 0x0, symName: __ZNSt3__112__tuple_leafILm0ENS_12basic_stringIcNS_11char_traitsIcEENS_9allocatorIcEEEELb0EED2Ev, symObjAddr: 0x1D74, symBinAddr: 0x100002F48, symSize: 0x2C }
  - { offsetInCU: 0x1497F, offset: 0x1497F, size: 0x8, addend: 0x0, symName: __ZNSt3__111char_traitsIcE6lengthB8ue170006EPKc, symObjAddr: 0x1F8C, symBinAddr: 0x100003160, symSize: 0x34 }
  - { offsetInCU: 0x149C0, offset: 0x149C0, size: 0x8, addend: 0x0, symName: __ZNKSt3__113basic_ostreamIcNS_11char_traitsIcEEE6sentrycvbB8ue170006Ev, symObjAddr: 0x1FC0, symBinAddr: 0x100003194, symSize: 0x1C }
  - { offsetInCU: 0x149E6, offset: 0x149E6, size: 0x8, addend: 0x0, symName: __ZNSt3__119ostreambuf_iteratorIcNS_11char_traitsIcEEEC1B8ue170006ERNS_13basic_ostreamIcS2_EE, symObjAddr: 0x221C, symBinAddr: 0x1000033F0, symSize: 0x34 }
  - { offsetInCU: 0x14A1E, offset: 0x14A1E, size: 0x8, addend: 0x0, symName: __ZNKSt3__18ios_base5flagsB8ue170006Ev, symObjAddr: 0x2250, symBinAddr: 0x100003424, symSize: 0x18 }
  - { offsetInCU: 0x14A46, offset: 0x14A46, size: 0x8, addend: 0x0, symName: __ZNKSt3__19basic_iosIcNS_11char_traitsIcEEE4fillB8ue170006Ev, symObjAddr: 0x2268, symBinAddr: 0x10000343C, symSize: 0x64 }
  - { offsetInCU: 0x14A6E, offset: 0x14A6E, size: 0x8, addend: 0x0, symName: __ZNKSt3__119ostreambuf_iteratorIcNS_11char_traitsIcEEE6failedB8ue170006Ev, symObjAddr: 0x22CC, symBinAddr: 0x1000034A0, symSize: 0x24 }
  - { offsetInCU: 0x14A94, offset: 0x14A94, size: 0x8, addend: 0x0, symName: __ZNSt3__19basic_iosIcNS_11char_traitsIcEEE8setstateB8ue170006Ej, symObjAddr: 0x22F0, symBinAddr: 0x1000034C4, symSize: 0x2C }
  - { offsetInCU: 0x14AC9, offset: 0x14AC9, size: 0x8, addend: 0x0, symName: __ZNKSt3__18ios_base5widthB8ue170006Ev, symObjAddr: 0x2328, symBinAddr: 0x1000034FC, symSize: 0x18 }
  - { offsetInCU: 0x14AF1, offset: 0x14AF1, size: 0x8, addend: 0x0, symName: __ZNSt3__115basic_streambufIcNS_11char_traitsIcEEE5sputnB8ue170006EPKcl, symObjAddr: 0x2340, symBinAddr: 0x100003514, symSize: 0x3C }
  - { offsetInCU: 0x14B33, offset: 0x14B33, size: 0x8, addend: 0x0, symName: __ZNSt3__112basic_stringIcNS_11char_traitsIcEENS_9allocatorIcEEEC1B8ue170006Emc, symObjAddr: 0x237C, symBinAddr: 0x100003550, symSize: 0x3C }
  - { offsetInCU: 0x14B7B, offset: 0x14B7B, size: 0x8, addend: 0x0, symName: __ZNKSt3__112basic_stringIcNS_11char_traitsIcEENS_9allocatorIcEEE4dataB8ue170006Ev, symObjAddr: 0x23B8, symBinAddr: 0x10000358C, symSize: 0x28 }
  - { offsetInCU: 0x14BA1, offset: 0x14BA1, size: 0x8, addend: 0x0, symName: __ZNSt3__18ios_base5widthB8ue170006El, symObjAddr: 0x23E0, symBinAddr: 0x1000035B4, symSize: 0x2C }
  - { offsetInCU: 0x14BE7, offset: 0x14BE7, size: 0x8, addend: 0x0, symName: __ZNSt3__112basic_stringIcNS_11char_traitsIcEENS_9allocatorIcEEEC2B8ue170006Emc, symObjAddr: 0x240C, symBinAddr: 0x1000035E0, symSize: 0x4C }
  - { offsetInCU: 0x14C34, offset: 0x14C34, size: 0x8, addend: 0x0, symName: __ZNSt3__117__compressed_pairINS_12basic_stringIcNS_11char_traitsIcEENS_9allocatorIcEEE5__repES5_EC1B8ue170006INS_18__default_init_tagESA_EEOT_OT0_, symObjAddr: 0x2458, symBinAddr: 0x10000362C, symSize: 0x3C }
  - { offsetInCU: 0x14C8C, offset: 0x14C8C, size: 0x8, addend: 0x0, symName: __ZNSt3__117__compressed_pairINS_12basic_stringIcNS_11char_traitsIcEENS_9allocatorIcEEE5__repES5_EC2B8ue170006INS_18__default_init_tagESA_EEOT_OT0_, symObjAddr: 0x2494, symBinAddr: 0x100003668, symSize: 0x3C }
  - { offsetInCU: 0x14CE4, offset: 0x14CE4, size: 0x8, addend: 0x0, symName: __ZNSt3__122__compressed_pair_elemINS_12basic_stringIcNS_11char_traitsIcEENS_9allocatorIcEEE5__repELi0ELb0EEC2B8ue170006ENS_18__default_init_tagE, symObjAddr: 0x24D0, symBinAddr: 0x1000036A4, symSize: 0x14 }
  - { offsetInCU: 0x14D18, offset: 0x14D18, size: 0x8, addend: 0x0, symName: __ZNSt3__122__compressed_pair_elemINS_9allocatorIcEELi1ELb1EEC2B8ue170006ENS_18__default_init_tagE, symObjAddr: 0x24E4, symBinAddr: 0x1000036B8, symSize: 0x2C }
  - { offsetInCU: 0x14D4C, offset: 0x14D4C, size: 0x8, addend: 0x0, symName: __ZNSt3__19allocatorIcEC2B8ue170006Ev, symObjAddr: 0x2510, symBinAddr: 0x1000036E4, symSize: 0x2C }
  - { offsetInCU: 0x14D76, offset: 0x14D76, size: 0x8, addend: 0x0, symName: __ZNSt3__116__non_trivial_ifILb1ENS_9allocatorIcEEEC2B8ue170006Ev, symObjAddr: 0x253C, symBinAddr: 0x100003710, symSize: 0x14 }
  - { offsetInCU: 0x14DA0, offset: 0x14DA0, size: 0x8, addend: 0x0, symName: __ZNKSt3__112basic_stringIcNS_11char_traitsIcEENS_9allocatorIcEEE13__get_pointerB8ue170006Ev, symObjAddr: 0x2564, symBinAddr: 0x100003738, symSize: 0x54 }
  - { offsetInCU: 0x14DC6, offset: 0x14DC6, size: 0x8, addend: 0x0, symName: __ZNKSt3__112basic_stringIcNS_11char_traitsIcEENS_9allocatorIcEEE9__is_longB8ue170006Ev, symObjAddr: 0x25B8, symBinAddr: 0x10000378C, symSize: 0x38 }
  - { offsetInCU: 0x14DEC, offset: 0x14DEC, size: 0x8, addend: 0x0, symName: __ZNKSt3__112basic_stringIcNS_11char_traitsIcEENS_9allocatorIcEEE18__get_long_pointerB8ue170006Ev, symObjAddr: 0x25F0, symBinAddr: 0x1000037C4, symSize: 0x28 }
  - { offsetInCU: 0x14E12, offset: 0x14E12, size: 0x8, addend: 0x0, symName: __ZNKSt3__112basic_stringIcNS_11char_traitsIcEENS_9allocatorIcEEE19__get_short_pointerB8ue170006Ev, symObjAddr: 0x2618, symBinAddr: 0x1000037EC, symSize: 0x28 }
  - { offsetInCU: 0x14E38, offset: 0x14E38, size: 0x8, addend: 0x0, symName: __ZNKSt3__117__compressed_pairINS_12basic_stringIcNS_11char_traitsIcEENS_9allocatorIcEEE5__repES5_E5firstB8ue170006Ev, symObjAddr: 0x2640, symBinAddr: 0x100003814, symSize: 0x24 }
  - { offsetInCU: 0x14E5E, offset: 0x14E5E, size: 0x8, addend: 0x0, symName: __ZNKSt3__122__compressed_pair_elemINS_12basic_stringIcNS_11char_traitsIcEENS_9allocatorIcEEE5__repELi0ELb0EE5__getB8ue170006Ev, symObjAddr: 0x2664, symBinAddr: 0x100003838, symSize: 0x14 }
  - { offsetInCU: 0x14E84, offset: 0x14E84, size: 0x8, addend: 0x0, symName: __ZNSt3__114pointer_traitsIPKcE10pointer_toB8ue170006ERS1_, symObjAddr: 0x2678, symBinAddr: 0x10000384C, symSize: 0x14 }
  - { offsetInCU: 0x14EA7, offset: 0x14EA7, size: 0x8, addend: 0x0, symName: __ZNSt3__119ostreambuf_iteratorIcNS_11char_traitsIcEEEC2B8ue170006ERNS_13basic_ostreamIcS2_EE, symObjAddr: 0x268C, symBinAddr: 0x100003860, symSize: 0x54 }
  - { offsetInCU: 0x14EDF, offset: 0x14EDF, size: 0x8, addend: 0x0, symName: __ZNKSt3__19basic_iosIcNS_11char_traitsIcEEE5rdbufB8ue170006Ev, symObjAddr: 0x26E0, symBinAddr: 0x1000038B4, symSize: 0x24 }
  - { offsetInCU: 0x14F07, offset: 0x14F07, size: 0x8, addend: 0x0, symName: __ZNKSt3__18ios_base5rdbufB8ue170006Ev, symObjAddr: 0x2704, symBinAddr: 0x1000038D8, symSize: 0x18 }
  - { offsetInCU: 0x14F2D, offset: 0x14F2D, size: 0x8, addend: 0x0, symName: __ZNSt3__111char_traitsIcE11eq_int_typeB8ue170006Eii, symObjAddr: 0x271C, symBinAddr: 0x1000038F0, symSize: 0x28 }
  - { offsetInCU: 0x14F60, offset: 0x14F60, size: 0x8, addend: 0x0, symName: __ZNSt3__111char_traitsIcE3eofB8ue170006Ev, symObjAddr: 0x2744, symBinAddr: 0x100003918, symSize: 0x8 }
  - { offsetInCU: 0x14F74, offset: 0x14F74, size: 0x8, addend: 0x0, symName: __ZNKSt3__19basic_iosIcNS_11char_traitsIcEEE5widenB8ue170006Ec, symObjAddr: 0x274C, symBinAddr: 0x100003920, symSize: 0x84 }
  - { offsetInCU: 0x14FE2, offset: 0x14FE2, size: 0x8, addend: 0x0, symName: __ZNKSt3__15ctypeIcE5widenB8ue170006Ec, symObjAddr: 0x27FC, symBinAddr: 0x1000039D0, symSize: 0x38 }
  - { offsetInCU: 0x15017, offset: 0x15017, size: 0x8, addend: 0x0, symName: __ZNSt3__18ios_base8setstateB8ue170006Ej, symObjAddr: 0x2834, symBinAddr: 0x100003A08, symSize: 0x34 }
  - { offsetInCU: 0x1504E, offset: 0x1504E, size: 0x8, addend: 0x0, symName: __ZNSt3__13mapINS_12basic_stringIcNS_11char_traitsIcEENS_9allocatorIcEEEEdNS_4lessIS6_EENS4_INS_4pairIKS6_dEEEEEC2B8ue170006Ev, symObjAddr: 0x288C, symBinAddr: 0x100003A60, symSize: 0x40 }
  - { offsetInCU: 0x15078, offset: 0x15078, size: 0x8, addend: 0x0, symName: __ZNSt3__119__map_value_compareINS_12basic_stringIcNS_11char_traitsIcEENS_9allocatorIcEEEENS_12__value_typeIS6_dEENS_4lessIS6_EELb1EEC1B8ue170006ESA_, symObjAddr: 0x28CC, symBinAddr: 0x100003AA0, symSize: 0x2C }
  - { offsetInCU: 0x150B1, offset: 0x150B1, size: 0x8, addend: 0x0, symName: __ZNSt3__16__treeINS_12__value_typeINS_12basic_stringIcNS_11char_traitsIcEENS_9allocatorIcEEEEdEENS_19__map_value_compareIS7_S8_NS_4lessIS7_EELb1EEENS5_IS8_EEEC1ERKSC_, symObjAddr: 0x28F8, symBinAddr: 0x100003ACC, symSize: 0x34 }
  - { offsetInCU: 0x150EC, offset: 0x150EC, size: 0x8, addend: 0x0, symName: __ZNSt3__119__map_value_compareINS_12basic_stringIcNS_11char_traitsIcEENS_9allocatorIcEEEENS_12__value_typeIS6_dEENS_4lessIS6_EELb1EEC2B8ue170006ESA_, symObjAddr: 0x292C, symBinAddr: 0x100003B00, symSize: 0x14 }
  - { offsetInCU: 0x15125, offset: 0x15125, size: 0x8, addend: 0x0, symName: __ZNSt3__16__treeINS_12__value_typeINS_12basic_stringIcNS_11char_traitsIcEENS_9allocatorIcEEEEdEENS_19__map_value_compareIS7_S8_NS_4lessIS7_EELb1EEENS5_IS8_EEEC2ERKSC_, symObjAddr: 0x2940, symBinAddr: 0x100003B14, symSize: 0x7C }
  - { offsetInCU: 0x15160, offset: 0x15160, size: 0x8, addend: 0x0, symName: __ZNSt3__117__compressed_pairINS_15__tree_end_nodeIPNS_16__tree_node_baseIPvEEEENS_9allocatorINS_11__tree_nodeINS_12__value_typeINS_12basic_stringIcNS_11char_traitsIcEENS7_IcEEEEdEES3_EEEEEC1B8ue170006ILb1EvEEv, symObjAddr: 0x29BC, symBinAddr: 0x100003B90, symSize: 0x2C }
  - { offsetInCU: 0x1519A, offset: 0x1519A, size: 0x8, addend: 0x0, symName: __ZNSt3__117__compressed_pairImNS_19__map_value_compareINS_12basic_stringIcNS_11char_traitsIcEENS_9allocatorIcEEEENS_12__value_typeIS7_dEENS_4lessIS7_EELb1EEEEC1B8ue170006IiRKSC_EEOT_OT0_, symObjAddr: 0x29E8, symBinAddr: 0x100003BBC, symSize: 0x3C }
  - { offsetInCU: 0x151F2, offset: 0x151F2, size: 0x8, addend: 0x0, symName: __ZNSt3__16__treeINS_12__value_typeINS_12basic_stringIcNS_11char_traitsIcEENS_9allocatorIcEEEEdEENS_19__map_value_compareIS7_S8_NS_4lessIS7_EELb1EEENS5_IS8_EEE10__end_nodeB8ue170006Ev, symObjAddr: 0x2A24, symBinAddr: 0x100003BF8, symSize: 0x2C }
  - { offsetInCU: 0x15218, offset: 0x15218, size: 0x8, addend: 0x0, symName: __ZNSt3__16__treeINS_12__value_typeINS_12basic_stringIcNS_11char_traitsIcEENS_9allocatorIcEEEEdEENS_19__map_value_compareIS7_S8_NS_4lessIS7_EELb1EEENS5_IS8_EEE12__begin_nodeB8ue170006Ev, symObjAddr: 0x2A50, symBinAddr: 0x100003C24, symSize: 0x14 }
  - { offsetInCU: 0x1523E, offset: 0x1523E, size: 0x8, addend: 0x0, symName: __ZNSt3__117__compressed_pairINS_15__tree_end_nodeIPNS_16__tree_node_baseIPvEEEENS_9allocatorINS_11__tree_nodeINS_12__value_typeINS_12basic_stringIcNS_11char_traitsIcEENS7_IcEEEEdEES3_EEEEEC2B8ue170006ILb1EvEEv, symObjAddr: 0x2A64, symBinAddr: 0x100003C38, symSize: 0x34 }
  - { offsetInCU: 0x15273, offset: 0x15273, size: 0x8, addend: 0x0, symName: __ZNSt3__122__compressed_pair_elemINS_15__tree_end_nodeIPNS_16__tree_node_baseIPvEEEELi0ELb0EEC2B8ue170006ENS_16__value_init_tagE, symObjAddr: 0x2A98, symBinAddr: 0x100003C6C, symSize: 0x2C }
  - { offsetInCU: 0x152A7, offset: 0x152A7, size: 0x8, addend: 0x0, symName: __ZNSt3__122__compressed_pair_elemINS_9allocatorINS_11__tree_nodeINS_12__value_typeINS_12basic_stringIcNS_11char_traitsIcEENS1_IcEEEEdEEPvEEEELi1ELb1EEC2B8ue170006ENS_16__value_init_tagE, symObjAddr: 0x2AC4, symBinAddr: 0x100003C98, symSize: 0x2C }
  - { offsetInCU: 0x152DB, offset: 0x152DB, size: 0x8, addend: 0x0, symName: __ZNSt3__115__tree_end_nodeIPNS_16__tree_node_baseIPvEEEC1B8ue170006Ev, symObjAddr: 0x2AF0, symBinAddr: 0x100003CC4, symSize: 0x2C }
  - { offsetInCU: 0x15305, offset: 0x15305, size: 0x8, addend: 0x0, symName: __ZNSt3__115__tree_end_nodeIPNS_16__tree_node_baseIPvEEEC2B8ue170006Ev, symObjAddr: 0x2B1C, symBinAddr: 0x100003CF0, symSize: 0x18 }
  - { offsetInCU: 0x1532F, offset: 0x1532F, size: 0x8, addend: 0x0, symName: __ZNSt3__19allocatorINS_11__tree_nodeINS_12__value_typeINS_12basic_stringIcNS_11char_traitsIcEENS0_IcEEEEdEEPvEEEC2B8ue170006Ev, symObjAddr: 0x2B34, symBinAddr: 0x100003D08, symSize: 0x2C }
  - { offsetInCU: 0x15359, offset: 0x15359, size: 0x8, addend: 0x0, symName: __ZNSt3__116__non_trivial_ifILb1ENS_9allocatorINS_11__tree_nodeINS_12__value_typeINS_12basic_stringIcNS_11char_traitsIcEENS1_IcEEEEdEEPvEEEEEC2B8ue170006Ev, symObjAddr: 0x2B60, symBinAddr: 0x100003D34, symSize: 0x14 }
  - { offsetInCU: 0x15383, offset: 0x15383, size: 0x8, addend: 0x0, symName: __ZNSt3__117__compressed_pairImNS_19__map_value_compareINS_12basic_stringIcNS_11char_traitsIcEENS_9allocatorIcEEEENS_12__value_typeIS7_dEENS_4lessIS7_EELb1EEEEC2B8ue170006IiRKSC_EEOT_OT0_, symObjAddr: 0x2B74, symBinAddr: 0x100003D48, symSize: 0x44 }
  - { offsetInCU: 0x153DB, offset: 0x153DB, size: 0x8, addend: 0x0, symName: __ZNSt3__122__compressed_pair_elemImLi0ELb0EEC2B8ue170006IivEEOT_, symObjAddr: 0x2BB8, symBinAddr: 0x100003D8C, symSize: 0x24 }
  - { offsetInCU: 0x1541D, offset: 0x1541D, size: 0x8, addend: 0x0, symName: __ZNSt3__122__compressed_pair_elemINS_19__map_value_compareINS_12basic_stringIcNS_11char_traitsIcEENS_9allocatorIcEEEENS_12__value_typeIS7_dEENS_4lessIS7_EELb1EEELi1ELb1EEC2B8ue170006IRKSC_vEEOT_, symObjAddr: 0x2BDC, symBinAddr: 0x100003DB0, symSize: 0x18 }
  - { offsetInCU: 0x1545F, offset: 0x1545F, size: 0x8, addend: 0x0, symName: __ZNSt3__114pointer_traitsIPNS_15__tree_end_nodeIPNS_16__tree_node_baseIPvEEEEE10pointer_toB8ue170006ERS6_, symObjAddr: 0x2BF4, symBinAddr: 0x100003DC8, symSize: 0x14 }
  - { offsetInCU: 0x15482, offset: 0x15482, size: 0x8, addend: 0x0, symName: __ZNSt3__117__compressed_pairINS_15__tree_end_nodeIPNS_16__tree_node_baseIPvEEEENS_9allocatorINS_11__tree_nodeINS_12__value_typeINS_12basic_stringIcNS_11char_traitsIcEENS7_IcEEEEdEES3_EEEEE5firstB8ue170006Ev, symObjAddr: 0x2C08, symBinAddr: 0x100003DDC, symSize: 0x24 }
  - { offsetInCU: 0x154A8, offset: 0x154A8, size: 0x8, addend: 0x0, symName: __ZNSt3__122__compressed_pair_elemINS_15__tree_end_nodeIPNS_16__tree_node_baseIPvEEEELi0ELb0EE5__getB8ue170006Ev, symObjAddr: 0x2C2C, symBinAddr: 0x100003E00, symSize: 0x14 }
  - { offsetInCU: 0x154CE, offset: 0x154CE, size: 0x8, addend: 0x0, symName: __ZNSt3__13mapINS_12basic_stringIcNS_11char_traitsIcEENS_9allocatorIcEEEEdNS_4lessIS6_EENS4_INS_4pairIKS6_dEEEEED2B8ue170006Ev, symObjAddr: 0x2C40, symBinAddr: 0x100003E14, symSize: 0x2C }
  - { offsetInCU: 0x154F8, offset: 0x154F8, size: 0x8, addend: 0x0, symName: __ZNSt3__16__treeINS_12__value_typeINS_12basic_stringIcNS_11char_traitsIcEENS_9allocatorIcEEEEdEENS_19__map_value_compareIS7_S8_NS_4lessIS7_EELb1EEENS5_IS8_EEED1Ev, symObjAddr: 0x2C6C, symBinAddr: 0x100003E40, symSize: 0x2C }
  - { offsetInCU: 0x15524, offset: 0x15524, size: 0x8, addend: 0x0, symName: __ZNSt3__16__treeINS_12__value_typeINS_12basic_stringIcNS_11char_traitsIcEENS_9allocatorIcEEEEdEENS_19__map_value_compareIS7_S8_NS_4lessIS7_EELb1EEENS5_IS8_EEED2Ev, symObjAddr: 0x2C98, symBinAddr: 0x100003E6C, symSize: 0x38 }
  - { offsetInCU: 0x15550, offset: 0x15550, size: 0x8, addend: 0x0, symName: __ZNSt3__16__treeINS_12__value_typeINS_12basic_stringIcNS_11char_traitsIcEENS_9allocatorIcEEEEdEENS_19__map_value_compareIS7_S8_NS_4lessIS7_EELb1EEENS5_IS8_EEE7destroyEPNS_11__tree_nodeIS8_PvEE, symObjAddr: 0x2CD0, symBinAddr: 0x100003EA4, symSize: 0xAC }
  - { offsetInCU: 0x1559C, offset: 0x1559C, size: 0x8, addend: 0x0, symName: __ZNKSt3__16__treeINS_12__value_typeINS_12basic_stringIcNS_11char_traitsIcEENS_9allocatorIcEEEEdEENS_19__map_value_compareIS7_S8_NS_4lessIS7_EELb1EEENS5_IS8_EEE6__rootB8ue170006Ev, symObjAddr: 0x2D7C, symBinAddr: 0x100003F50, symSize: 0x28 }
  - { offsetInCU: 0x155C2, offset: 0x155C2, size: 0x8, addend: 0x0, symName: __ZNSt3__16__treeINS_12__value_typeINS_12basic_stringIcNS_11char_traitsIcEENS_9allocatorIcEEEEdEENS_19__map_value_compareIS7_S8_NS_4lessIS7_EELb1EEENS5_IS8_EEE12__node_allocB8ue170006Ev, symObjAddr: 0x2DA4, symBinAddr: 0x100003F78, symSize: 0x28 }
  - { offsetInCU: 0x155E8, offset: 0x155E8, size: 0x8, addend: 0x0, symName: __ZNSt3__116allocator_traitsINS_9allocatorINS_11__tree_nodeINS_12__value_typeINS_12basic_stringIcNS_11char_traitsIcEENS1_IcEEEEdEEPvEEEEE7destroyB8ue170006INS_4pairIKS8_dEEvvEEvRSC_PT_, symObjAddr: 0x2DCC, symBinAddr: 0x100003FA0, symSize: 0x28 }
  - { offsetInCU: 0x15623, offset: 0x15623, size: 0x8, addend: 0x0, symName: __ZNSt3__122__tree_key_value_typesINS_12__value_typeINS_12basic_stringIcNS_11char_traitsIcEENS_9allocatorIcEEEEdEEE9__get_ptrB8ue170006ERS8_, symObjAddr: 0x2DF4, symBinAddr: 0x100003FC8, symSize: 0x24 }
  - { offsetInCU: 0x15647, offset: 0x15647, size: 0x8, addend: 0x0, symName: __ZNSt3__116allocator_traitsINS_9allocatorINS_11__tree_nodeINS_12__value_typeINS_12basic_stringIcNS_11char_traitsIcEENS1_IcEEEEdEEPvEEEEE10deallocateB8ue170006ERSC_PSB_m, symObjAddr: 0x2E18, symBinAddr: 0x100003FEC, symSize: 0x34 }
  - { offsetInCU: 0x15689, offset: 0x15689, size: 0x8, addend: 0x0, symName: __ZNSt3__117__compressed_pairINS_15__tree_end_nodeIPNS_16__tree_node_baseIPvEEEENS_9allocatorINS_11__tree_nodeINS_12__value_typeINS_12basic_stringIcNS_11char_traitsIcEENS7_IcEEEEdEES3_EEEEE6secondB8ue170006Ev, symObjAddr: 0x2E4C, symBinAddr: 0x100004020, symSize: 0x24 }
  - { offsetInCU: 0x156AF, offset: 0x156AF, size: 0x8, addend: 0x0, symName: __ZNSt3__122__compressed_pair_elemINS_9allocatorINS_11__tree_nodeINS_12__value_typeINS_12basic_stringIcNS_11char_traitsIcEENS1_IcEEEEdEEPvEEEELi1ELb1EE5__getB8ue170006Ev, symObjAddr: 0x2E70, symBinAddr: 0x100004044, symSize: 0x14 }
  - { offsetInCU: 0x156D5, offset: 0x156D5, size: 0x8, addend: 0x0, symName: __ZNSt3__14pairIKNS_12basic_stringIcNS_11char_traitsIcEENS_9allocatorIcEEEEdED1Ev, symObjAddr: 0x2E84, symBinAddr: 0x100004058, symSize: 0x2C }
  - { offsetInCU: 0x15701, offset: 0x15701, size: 0x8, addend: 0x0, symName: __ZNSt3__14pairIKNS_12basic_stringIcNS_11char_traitsIcEENS_9allocatorIcEEEEdED2Ev, symObjAddr: 0x2EB0, symBinAddr: 0x100004084, symSize: 0x2C }
  - { offsetInCU: 0x1572D, offset: 0x1572D, size: 0x8, addend: 0x0, symName: __ZNSt3__112__value_typeINS_12basic_stringIcNS_11char_traitsIcEENS_9allocatorIcEEEEdE11__get_valueB8ue170006Ev, symObjAddr: 0x2EDC, symBinAddr: 0x1000040B0, symSize: 0x14 }
  - { offsetInCU: 0x15753, offset: 0x15753, size: 0x8, addend: 0x0, symName: __ZNSt3__19allocatorINS_11__tree_nodeINS_12__value_typeINS_12basic_stringIcNS_11char_traitsIcEENS0_IcEEEEdEEPvEEE10deallocateB8ue170006EPSA_m, symObjAddr: 0x2EF0, symBinAddr: 0x1000040C4, symSize: 0x40 }
  - { offsetInCU: 0x15795, offset: 0x15795, size: 0x8, addend: 0x0, symName: __ZNKSt3__16__treeINS_12__value_typeINS_12basic_stringIcNS_11char_traitsIcEENS_9allocatorIcEEEEdEENS_19__map_value_compareIS7_S8_NS_4lessIS7_EELb1EEENS5_IS8_EEE10__end_nodeB8ue170006Ev, symObjAddr: 0x2FAC, symBinAddr: 0x100004180, symSize: 0x2C }
  - { offsetInCU: 0x157BB, offset: 0x157BB, size: 0x8, addend: 0x0, symName: __ZNKSt3__117__compressed_pairINS_15__tree_end_nodeIPNS_16__tree_node_baseIPvEEEENS_9allocatorINS_11__tree_nodeINS_12__value_typeINS_12basic_stringIcNS_11char_traitsIcEENS7_IcEEEEdEES3_EEEEE5firstB8ue170006Ev, symObjAddr: 0x2FD8, symBinAddr: 0x1000041AC, symSize: 0x24 }
  - { offsetInCU: 0x157E1, offset: 0x157E1, size: 0x8, addend: 0x0, symName: __ZNKSt3__122__compressed_pair_elemINS_15__tree_end_nodeIPNS_16__tree_node_baseIPvEEEELi0ELb0EE5__getB8ue170006Ev, symObjAddr: 0x2FFC, symBinAddr: 0x1000041D0, symSize: 0x14 }
  - { offsetInCU: 0x15807, offset: 0x15807, size: 0x8, addend: 0x0, symName: __ZNSt3__13mapINS_12basic_stringIcNS_11char_traitsIcEENS_9allocatorIcEEEEcNS_4lessIS6_EENS4_INS_4pairIKS6_cEEEEEC2B8ue170006Ev, symObjAddr: 0x3010, symBinAddr: 0x1000041E4, symSize: 0x40 }
  - { offsetInCU: 0x15831, offset: 0x15831, size: 0x8, addend: 0x0, symName: __ZNSt3__119__map_value_compareINS_12basic_stringIcNS_11char_traitsIcEENS_9allocatorIcEEEENS_12__value_typeIS6_cEENS_4lessIS6_EELb1EEC1B8ue170006ESA_, symObjAddr: 0x3050, symBinAddr: 0x100004224, symSize: 0x2C }
  - { offsetInCU: 0x1586A, offset: 0x1586A, size: 0x8, addend: 0x0, symName: __ZNSt3__16__treeINS_12__value_typeINS_12basic_stringIcNS_11char_traitsIcEENS_9allocatorIcEEEEcEENS_19__map_value_compareIS7_S8_NS_4lessIS7_EELb1EEENS5_IS8_EEEC1ERKSC_, symObjAddr: 0x307C, symBinAddr: 0x100004250, symSize: 0x34 }
  - { offsetInCU: 0x158A5, offset: 0x158A5, size: 0x8, addend: 0x0, symName: __ZNSt3__119__map_value_compareINS_12basic_stringIcNS_11char_traitsIcEENS_9allocatorIcEEEENS_12__value_typeIS6_cEENS_4lessIS6_EELb1EEC2B8ue170006ESA_, symObjAddr: 0x30B0, symBinAddr: 0x100004284, symSize: 0x14 }
  - { offsetInCU: 0x158DE, offset: 0x158DE, size: 0x8, addend: 0x0, symName: __ZNSt3__16__treeINS_12__value_typeINS_12basic_stringIcNS_11char_traitsIcEENS_9allocatorIcEEEEcEENS_19__map_value_compareIS7_S8_NS_4lessIS7_EELb1EEENS5_IS8_EEEC2ERKSC_, symObjAddr: 0x30C4, symBinAddr: 0x100004298, symSize: 0x7C }
  - { offsetInCU: 0x15919, offset: 0x15919, size: 0x8, addend: 0x0, symName: __ZNSt3__117__compressed_pairINS_15__tree_end_nodeIPNS_16__tree_node_baseIPvEEEENS_9allocatorINS_11__tree_nodeINS_12__value_typeINS_12basic_stringIcNS_11char_traitsIcEENS7_IcEEEEcEES3_EEEEEC1B8ue170006ILb1EvEEv, symObjAddr: 0x3140, symBinAddr: 0x100004314, symSize: 0x2C }
  - { offsetInCU: 0x1594E, offset: 0x1594E, size: 0x8, addend: 0x0, symName: __ZNSt3__117__compressed_pairImNS_19__map_value_compareINS_12basic_stringIcNS_11char_traitsIcEENS_9allocatorIcEEEENS_12__value_typeIS7_cEENS_4lessIS7_EELb1EEEEC1B8ue170006IiRKSC_EEOT_OT0_, symObjAddr: 0x316C, symBinAddr: 0x100004340, symSize: 0x3C }
  - { offsetInCU: 0x159A6, offset: 0x159A6, size: 0x8, addend: 0x0, symName: __ZNSt3__16__treeINS_12__value_typeINS_12basic_stringIcNS_11char_traitsIcEENS_9allocatorIcEEEEcEENS_19__map_value_compareIS7_S8_NS_4lessIS7_EELb1EEENS5_IS8_EEE10__end_nodeB8ue170006Ev, symObjAddr: 0x31A8, symBinAddr: 0x10000437C, symSize: 0x2C }
  - { offsetInCU: 0x159CC, offset: 0x159CC, size: 0x8, addend: 0x0, symName: __ZNSt3__16__treeINS_12__value_typeINS_12basic_stringIcNS_11char_traitsIcEENS_9allocatorIcEEEEcEENS_19__map_value_compareIS7_S8_NS_4lessIS7_EELb1EEENS5_IS8_EEE12__begin_nodeB8ue170006Ev, symObjAddr: 0x31D4, symBinAddr: 0x1000043A8, symSize: 0x14 }
  - { offsetInCU: 0x159F2, offset: 0x159F2, size: 0x8, addend: 0x0, symName: __ZNSt3__117__compressed_pairINS_15__tree_end_nodeIPNS_16__tree_node_baseIPvEEEENS_9allocatorINS_11__tree_nodeINS_12__value_typeINS_12basic_stringIcNS_11char_traitsIcEENS7_IcEEEEcEES3_EEEEEC2B8ue170006ILb1EvEEv, symObjAddr: 0x31E8, symBinAddr: 0x1000043BC, symSize: 0x34 }
  - { offsetInCU: 0x15A27, offset: 0x15A27, size: 0x8, addend: 0x0, symName: __ZNSt3__122__compressed_pair_elemINS_9allocatorINS_11__tree_nodeINS_12__value_typeINS_12basic_stringIcNS_11char_traitsIcEENS1_IcEEEEcEEPvEEEELi1ELb1EEC2B8ue170006ENS_16__value_init_tagE, symObjAddr: 0x321C, symBinAddr: 0x1000043F0, symSize: 0x2C }
  - { offsetInCU: 0x15A5B, offset: 0x15A5B, size: 0x8, addend: 0x0, symName: __ZNSt3__19allocatorINS_11__tree_nodeINS_12__value_typeINS_12basic_stringIcNS_11char_traitsIcEENS0_IcEEEEcEEPvEEEC2B8ue170006Ev, symObjAddr: 0x3248, symBinAddr: 0x10000441C, symSize: 0x2C }
  - { offsetInCU: 0x15A85, offset: 0x15A85, size: 0x8, addend: 0x0, symName: __ZNSt3__116__non_trivial_ifILb1ENS_9allocatorINS_11__tree_nodeINS_12__value_typeINS_12basic_stringIcNS_11char_traitsIcEENS1_IcEEEEcEEPvEEEEEC2B8ue170006Ev, symObjAddr: 0x3274, symBinAddr: 0x100004448, symSize: 0x14 }
  - { offsetInCU: 0x15AAF, offset: 0x15AAF, size: 0x8, addend: 0x0, symName: __ZNSt3__117__compressed_pairImNS_19__map_value_compareINS_12basic_stringIcNS_11char_traitsIcEENS_9allocatorIcEEEENS_12__value_typeIS7_cEENS_4lessIS7_EELb1EEEEC2B8ue170006IiRKSC_EEOT_OT0_, symObjAddr: 0x3288, symBinAddr: 0x10000445C, symSize: 0x44 }
  - { offsetInCU: 0x15B07, offset: 0x15B07, size: 0x8, addend: 0x0, symName: __ZNSt3__122__compressed_pair_elemINS_19__map_value_compareINS_12basic_stringIcNS_11char_traitsIcEENS_9allocatorIcEEEENS_12__value_typeIS7_cEENS_4lessIS7_EELb1EEELi1ELb1EEC2B8ue170006IRKSC_vEEOT_, symObjAddr: 0x32CC, symBinAddr: 0x1000044A0, symSize: 0x18 }
  - { offsetInCU: 0x15B49, offset: 0x15B49, size: 0x8, addend: 0x0, symName: __ZNSt3__117__compressed_pairINS_15__tree_end_nodeIPNS_16__tree_node_baseIPvEEEENS_9allocatorINS_11__tree_nodeINS_12__value_typeINS_12basic_stringIcNS_11char_traitsIcEENS7_IcEEEEcEES3_EEEEE5firstB8ue170006Ev, symObjAddr: 0x32E4, symBinAddr: 0x1000044B8, symSize: 0x24 }
  - { offsetInCU: 0x15B6F, offset: 0x15B6F, size: 0x8, addend: 0x0, symName: __ZNSt3__13mapINS_12basic_stringIcNS_11char_traitsIcEENS_9allocatorIcEEEEcNS_4lessIS6_EENS4_INS_4pairIKS6_cEEEEED2B8ue170006Ev, symObjAddr: 0x3308, symBinAddr: 0x1000044DC, symSize: 0x2C }
  - { offsetInCU: 0x15B99, offset: 0x15B99, size: 0x8, addend: 0x0, symName: __ZNSt3__16__treeINS_12__value_typeINS_12basic_stringIcNS_11char_traitsIcEENS_9allocatorIcEEEEcEENS_19__map_value_compareIS7_S8_NS_4lessIS7_EELb1EEENS5_IS8_EEED1Ev, symObjAddr: 0x3334, symBinAddr: 0x100004508, symSize: 0x2C }
  - { offsetInCU: 0x15BC5, offset: 0x15BC5, size: 0x8, addend: 0x0, symName: __ZNSt3__16__treeINS_12__value_typeINS_12basic_stringIcNS_11char_traitsIcEENS_9allocatorIcEEEEcEENS_19__map_value_compareIS7_S8_NS_4lessIS7_EELb1EEENS5_IS8_EEED2Ev, symObjAddr: 0x3360, symBinAddr: 0x100004534, symSize: 0x38 }
  - { offsetInCU: 0x15BF1, offset: 0x15BF1, size: 0x8, addend: 0x0, symName: __ZNSt3__16__treeINS_12__value_typeINS_12basic_stringIcNS_11char_traitsIcEENS_9allocatorIcEEEEcEENS_19__map_value_compareIS7_S8_NS_4lessIS7_EELb1EEENS5_IS8_EEE7destroyEPNS_11__tree_nodeIS8_PvEE, symObjAddr: 0x3398, symBinAddr: 0x10000456C, symSize: 0xAC }
  - { offsetInCU: 0x15C3D, offset: 0x15C3D, size: 0x8, addend: 0x0, symName: __ZNKSt3__16__treeINS_12__value_typeINS_12basic_stringIcNS_11char_traitsIcEENS_9allocatorIcEEEEcEENS_19__map_value_compareIS7_S8_NS_4lessIS7_EELb1EEENS5_IS8_EEE6__rootB8ue170006Ev, symObjAddr: 0x3444, symBinAddr: 0x100004618, symSize: 0x28 }
  - { offsetInCU: 0x15C63, offset: 0x15C63, size: 0x8, addend: 0x0, symName: __ZNSt3__16__treeINS_12__value_typeINS_12basic_stringIcNS_11char_traitsIcEENS_9allocatorIcEEEEcEENS_19__map_value_compareIS7_S8_NS_4lessIS7_EELb1EEENS5_IS8_EEE12__node_allocB8ue170006Ev, symObjAddr: 0x346C, symBinAddr: 0x100004640, symSize: 0x28 }
  - { offsetInCU: 0x15C89, offset: 0x15C89, size: 0x8, addend: 0x0, symName: __ZNSt3__116allocator_traitsINS_9allocatorINS_11__tree_nodeINS_12__value_typeINS_12basic_stringIcNS_11char_traitsIcEENS1_IcEEEEcEEPvEEEEE7destroyB8ue170006INS_4pairIKS8_cEEvvEEvRSC_PT_, symObjAddr: 0x3494, symBinAddr: 0x100004668, symSize: 0x28 }
  - { offsetInCU: 0x15CC4, offset: 0x15CC4, size: 0x8, addend: 0x0, symName: __ZNSt3__122__tree_key_value_typesINS_12__value_typeINS_12basic_stringIcNS_11char_traitsIcEENS_9allocatorIcEEEEcEEE9__get_ptrB8ue170006ERS8_, symObjAddr: 0x34BC, symBinAddr: 0x100004690, symSize: 0x24 }
  - { offsetInCU: 0x15CE8, offset: 0x15CE8, size: 0x8, addend: 0x0, symName: __ZNSt3__116allocator_traitsINS_9allocatorINS_11__tree_nodeINS_12__value_typeINS_12basic_stringIcNS_11char_traitsIcEENS1_IcEEEEcEEPvEEEEE10deallocateB8ue170006ERSC_PSB_m, symObjAddr: 0x34E0, symBinAddr: 0x1000046B4, symSize: 0x34 }
  - { offsetInCU: 0x15D2A, offset: 0x15D2A, size: 0x8, addend: 0x0, symName: __ZNSt3__117__compressed_pairINS_15__tree_end_nodeIPNS_16__tree_node_baseIPvEEEENS_9allocatorINS_11__tree_nodeINS_12__value_typeINS_12basic_stringIcNS_11char_traitsIcEENS7_IcEEEEcEES3_EEEEE6secondB8ue170006Ev, symObjAddr: 0x3514, symBinAddr: 0x1000046E8, symSize: 0x24 }
  - { offsetInCU: 0x15D50, offset: 0x15D50, size: 0x8, addend: 0x0, symName: __ZNSt3__122__compressed_pair_elemINS_9allocatorINS_11__tree_nodeINS_12__value_typeINS_12basic_stringIcNS_11char_traitsIcEENS1_IcEEEEcEEPvEEEELi1ELb1EE5__getB8ue170006Ev, symObjAddr: 0x3538, symBinAddr: 0x10000470C, symSize: 0x14 }
  - { offsetInCU: 0x15D76, offset: 0x15D76, size: 0x8, addend: 0x0, symName: __ZNSt3__14pairIKNS_12basic_stringIcNS_11char_traitsIcEENS_9allocatorIcEEEEcED1Ev, symObjAddr: 0x354C, symBinAddr: 0x100004720, symSize: 0x2C }
  - { offsetInCU: 0x15DA2, offset: 0x15DA2, size: 0x8, addend: 0x0, symName: __ZNSt3__14pairIKNS_12basic_stringIcNS_11char_traitsIcEENS_9allocatorIcEEEEcED2Ev, symObjAddr: 0x3578, symBinAddr: 0x10000474C, symSize: 0x2C }
  - { offsetInCU: 0x15DCE, offset: 0x15DCE, size: 0x8, addend: 0x0, symName: __ZNSt3__112__value_typeINS_12basic_stringIcNS_11char_traitsIcEENS_9allocatorIcEEEEcE11__get_valueB8ue170006Ev, symObjAddr: 0x35A4, symBinAddr: 0x100004778, symSize: 0x14 }
  - { offsetInCU: 0x15DF4, offset: 0x15DF4, size: 0x8, addend: 0x0, symName: __ZNSt3__19allocatorINS_11__tree_nodeINS_12__value_typeINS_12basic_stringIcNS_11char_traitsIcEENS0_IcEEEEcEEPvEEE10deallocateB8ue170006EPSA_m, symObjAddr: 0x35B8, symBinAddr: 0x10000478C, symSize: 0x40 }
  - { offsetInCU: 0x15E36, offset: 0x15E36, size: 0x8, addend: 0x0, symName: __ZNKSt3__16__treeINS_12__value_typeINS_12basic_stringIcNS_11char_traitsIcEENS_9allocatorIcEEEEcEENS_19__map_value_compareIS7_S8_NS_4lessIS7_EELb1EEENS5_IS8_EEE10__end_nodeB8ue170006Ev, symObjAddr: 0x35F8, symBinAddr: 0x1000047CC, symSize: 0x2C }
  - { offsetInCU: 0x15E5C, offset: 0x15E5C, size: 0x8, addend: 0x0, symName: __ZNKSt3__117__compressed_pairINS_15__tree_end_nodeIPNS_16__tree_node_baseIPvEEEENS_9allocatorINS_11__tree_nodeINS_12__value_typeINS_12basic_stringIcNS_11char_traitsIcEENS7_IcEEEEcEES3_EEEEE5firstB8ue170006Ev, symObjAddr: 0x3624, symBinAddr: 0x1000047F8, symSize: 0x24 }
  - { offsetInCU: 0x15E82, offset: 0x15E82, size: 0x8, addend: 0x0, symName: __ZNSt3__112basic_stringIcNS_11char_traitsIcEENS_9allocatorIcEEEC2B8ue170006ILi0EEEPKc, symObjAddr: 0x3648, symBinAddr: 0x10000481C, symSize: 0x58 }
  - { offsetInCU: 0x15EC1, offset: 0x15EC1, size: 0x8, addend: 0x0, symName: __ZNSt3__16vectorINS_12basic_stringIcNS_11char_traitsIcEENS_9allocatorIcEEEENS4_IS6_EEEC2B8ue170006ESt16initializer_listIS6_E, symObjAddr: 0x36A0, symBinAddr: 0x100004874, symSize: 0x120 }
  - { offsetInCU: 0x15F16, offset: 0x15F16, size: 0x8, addend: 0x0, symName: __ZNSt3__117__compressed_pairIPNS_12basic_stringIcNS_11char_traitsIcEENS_9allocatorIcEEEENS4_IS6_EEEC1B8ue170006IDnNS_18__default_init_tagEEEOT_OT0_, symObjAddr: 0x37C0, symBinAddr: 0x100004994, symSize: 0x3C }
  - { offsetInCU: 0x15F6E, offset: 0x15F6E, size: 0x8, addend: 0x0, symName: __ZNSt3__16vectorINS_12basic_stringIcNS_11char_traitsIcEENS_9allocatorIcEEEENS4_IS6_EEE16__destroy_vectorC1B8ue170006ERS8_, symObjAddr: 0x383C, symBinAddr: 0x100004A10, symSize: 0x34 }
  - { offsetInCU: 0x15FA7, offset: 0x15FA7, size: 0x8, addend: 0x0, symName: __ZNKSt16initializer_listINSt3__112basic_stringIcNS0_11char_traitsIcEENS0_9allocatorIcEEEEE4sizeB8ue170006Ev, symObjAddr: 0x3870, symBinAddr: 0x100004A44, symSize: 0x18 }
  - { offsetInCU: 0x15FCD, offset: 0x15FCD, size: 0x8, addend: 0x0, symName: __ZNSt3__16vectorINS_12basic_stringIcNS_11char_traitsIcEENS_9allocatorIcEEEENS4_IS6_EEE11__vallocateB8ue170006Em, symObjAddr: 0x3888, symBinAddr: 0x100004A5C, symSize: 0xB4 }
  - { offsetInCU: 0x16011, offset: 0x16011, size: 0x8, addend: 0x0, symName: __ZNSt3__16vectorINS_12basic_stringIcNS_11char_traitsIcEENS_9allocatorIcEEEENS4_IS6_EEE18__construct_at_endIPKS6_SB_EEvT_T0_m, symObjAddr: 0x393C, symBinAddr: 0x100004B10, symSize: 0x8C }
  - { offsetInCU: 0x16087, offset: 0x16087, size: 0x8, addend: 0x0, symName: __ZNKSt16initializer_listINSt3__112basic_stringIcNS0_11char_traitsIcEENS0_9allocatorIcEEEEE5beginB8ue170006Ev, symObjAddr: 0x39C8, symBinAddr: 0x100004B9C, symSize: 0x18 }
  - { offsetInCU: 0x160AD, offset: 0x160AD, size: 0x8, addend: 0x0, symName: __ZNKSt16initializer_listINSt3__112basic_stringIcNS0_11char_traitsIcEENS0_9allocatorIcEEEEE3endB8ue170006Ev, symObjAddr: 0x39E0, symBinAddr: 0x100004BB4, symSize: 0x28 }
  - { offsetInCU: 0x160D3, offset: 0x160D3, size: 0x8, addend: 0x0, symName: __ZNSt3__128__exception_guard_exceptionsINS_6vectorINS_12basic_stringIcNS_11char_traitsIcEENS_9allocatorIcEEEENS5_IS7_EEE16__destroy_vectorEE10__completeB8ue170006Ev, symObjAddr: 0x3A08, symBinAddr: 0x100004BDC, symSize: 0x1C }
  - { offsetInCU: 0x160F9, offset: 0x160F9, size: 0x8, addend: 0x0, symName: __ZNSt3__128__exception_guard_exceptionsINS_6vectorINS_12basic_stringIcNS_11char_traitsIcEENS_9allocatorIcEEEENS5_IS7_EEE16__destroy_vectorEED1B8ue170006Ev, symObjAddr: 0x3A24, symBinAddr: 0x100004BF8, symSize: 0x2C }
  - { offsetInCU: 0x16123, offset: 0x16123, size: 0x8, addend: 0x0, symName: __ZNSt3__117__compressed_pairIPNS_12basic_stringIcNS_11char_traitsIcEENS_9allocatorIcEEEENS4_IS6_EEEC2B8ue170006IDnNS_18__default_init_tagEEEOT_OT0_, symObjAddr: 0x3A50, symBinAddr: 0x100004C24, symSize: 0x40 }
  - { offsetInCU: 0x1617B, offset: 0x1617B, size: 0x8, addend: 0x0, symName: __ZNSt3__122__compressed_pair_elemIPNS_12basic_stringIcNS_11char_traitsIcEENS_9allocatorIcEEEELi0ELb0EEC2B8ue170006IDnvEEOT_, symObjAddr: 0x3A90, symBinAddr: 0x100004C64, symSize: 0x1C }
  - { offsetInCU: 0x161BD, offset: 0x161BD, size: 0x8, addend: 0x0, symName: __ZNSt3__122__compressed_pair_elemINS_9allocatorINS_12basic_stringIcNS_11char_traitsIcEENS1_IcEEEEEELi1ELb1EEC2B8ue170006ENS_18__default_init_tagE, symObjAddr: 0x3AAC, symBinAddr: 0x100004C80, symSize: 0x2C }
  - { offsetInCU: 0x161F1, offset: 0x161F1, size: 0x8, addend: 0x0, symName: __ZNSt3__19allocatorINS_12basic_stringIcNS_11char_traitsIcEENS0_IcEEEEEC2B8ue170006Ev, symObjAddr: 0x3AD8, symBinAddr: 0x100004CAC, symSize: 0x2C }
  - { offsetInCU: 0x1621B, offset: 0x1621B, size: 0x8, addend: 0x0, symName: __ZNSt3__116__non_trivial_ifILb1ENS_9allocatorINS_12basic_stringIcNS_11char_traitsIcEENS1_IcEEEEEEEC2B8ue170006Ev, symObjAddr: 0x3B04, symBinAddr: 0x100004CD8, symSize: 0x14 }
  - { offsetInCU: 0x16245, offset: 0x16245, size: 0x8, addend: 0x0, symName: __ZNSt3__128__exception_guard_exceptionsINS_6vectorINS_12basic_stringIcNS_11char_traitsIcEENS_9allocatorIcEEEENS5_IS7_EEE16__destroy_vectorEEC1B8ue170006ESA_, symObjAddr: 0x3B18, symBinAddr: 0x100004CEC, symSize: 0x34 }
  - { offsetInCU: 0x1627D, offset: 0x1627D, size: 0x8, addend: 0x0, symName: __ZNSt3__128__exception_guard_exceptionsINS_6vectorINS_12basic_stringIcNS_11char_traitsIcEENS_9allocatorIcEEEENS5_IS7_EEE16__destroy_vectorEEC2B8ue170006ESA_, symObjAddr: 0x3B4C, symBinAddr: 0x100004D20, symSize: 0x24 }
  - { offsetInCU: 0x162B5, offset: 0x162B5, size: 0x8, addend: 0x0, symName: __ZNSt3__16vectorINS_12basic_stringIcNS_11char_traitsIcEENS_9allocatorIcEEEENS4_IS6_EEE16__destroy_vectorC2B8ue170006ERS8_, symObjAddr: 0x3B70, symBinAddr: 0x100004D44, symSize: 0x20 }
  - { offsetInCU: 0x162EE, offset: 0x162EE, size: 0x8, addend: 0x0, symName: __ZNKSt3__16vectorINS_12basic_stringIcNS_11char_traitsIcEENS_9allocatorIcEEEENS4_IS6_EEE8max_sizeEv, symObjAddr: 0x3B90, symBinAddr: 0x100004D64, symSize: 0x60 }
  - { offsetInCU: 0x16316, offset: 0x16316, size: 0x8, addend: 0x0, symName: __ZNKSt3__16vectorINS_12basic_stringIcNS_11char_traitsIcEENS_9allocatorIcEEEENS4_IS6_EEE20__throw_length_errorB8ue170006Ev, symObjAddr: 0x3BF0, symBinAddr: 0x100004DC4, symSize: 0x1C }
  - { offsetInCU: 0x1633C, offset: 0x1633C, size: 0x8, addend: 0x0, symName: __ZNSt3__16vectorINS_12basic_stringIcNS_11char_traitsIcEENS_9allocatorIcEEEENS4_IS6_EEE7__allocB8ue170006Ev, symObjAddr: 0x3C4C, symBinAddr: 0x100004E20, symSize: 0x28 }
  - { offsetInCU: 0x16362, offset: 0x16362, size: 0x8, addend: 0x0, symName: __ZNSt3__16vectorINS_12basic_stringIcNS_11char_traitsIcEENS_9allocatorIcEEEENS4_IS6_EEE9__end_capB8ue170006Ev, symObjAddr: 0x3C74, symBinAddr: 0x100004E48, symSize: 0x28 }
  - { offsetInCU: 0x16388, offset: 0x16388, size: 0x8, addend: 0x0, symName: __ZNKSt3__16vectorINS_12basic_stringIcNS_11char_traitsIcEENS_9allocatorIcEEEENS4_IS6_EEE14__annotate_newB8ue170006Em, symObjAddr: 0x3C9C, symBinAddr: 0x100004E70, symSize: 0xC8 }
  - { offsetInCU: 0x163C7, offset: 0x163C7, size: 0x8, addend: 0x0, symName: __ZNSt3__116allocator_traitsINS_9allocatorINS_12basic_stringIcNS_11char_traitsIcEENS1_IcEEEEEEE8max_sizeB8ue170006IS7_vEEmRKS7_, symObjAddr: 0x3D90, symBinAddr: 0x100004F64, symSize: 0x24 }
  - { offsetInCU: 0x163F5, offset: 0x163F5, size: 0x8, addend: 0x0, symName: __ZNKSt3__16vectorINS_12basic_stringIcNS_11char_traitsIcEENS_9allocatorIcEEEENS4_IS6_EEE7__allocB8ue170006Ev, symObjAddr: 0x3DB4, symBinAddr: 0x100004F88, symSize: 0x28 }
  - { offsetInCU: 0x1641B, offset: 0x1641B, size: 0x8, addend: 0x0, symName: __ZNSt3__114numeric_limitsIlE3maxB8ue170006Ev, symObjAddr: 0x3DDC, symBinAddr: 0x100004FB0, symSize: 0x14 }
  - { offsetInCU: 0x16439, offset: 0x16439, size: 0x8, addend: 0x0, symName: __ZNKSt3__16__lessIvvEclB8ue170006ImmEEbRKT_RKT0_, symObjAddr: 0x3E44, symBinAddr: 0x100005018, symSize: 0x34 }
  - { offsetInCU: 0x1648D, offset: 0x1648D, size: 0x8, addend: 0x0, symName: __ZNKSt3__19allocatorINS_12basic_stringIcNS_11char_traitsIcEENS0_IcEEEEE8max_sizeB8ue170006Ev, symObjAddr: 0x3E78, symBinAddr: 0x10000504C, symSize: 0x18 }
  - { offsetInCU: 0x164B3, offset: 0x164B3, size: 0x8, addend: 0x0, symName: __ZNKSt3__117__compressed_pairIPNS_12basic_stringIcNS_11char_traitsIcEENS_9allocatorIcEEEENS4_IS6_EEE6secondB8ue170006Ev, symObjAddr: 0x3E90, symBinAddr: 0x100005064, symSize: 0x24 }
  - { offsetInCU: 0x164D9, offset: 0x164D9, size: 0x8, addend: 0x0, symName: __ZNKSt3__122__compressed_pair_elemINS_9allocatorINS_12basic_stringIcNS_11char_traitsIcEENS1_IcEEEEEELi1ELb1EE5__getB8ue170006Ev, symObjAddr: 0x3EB4, symBinAddr: 0x100005088, symSize: 0x14 }
  - { offsetInCU: 0x164FF, offset: 0x164FF, size: 0x8, addend: 0x0, symName: __ZNSt3__123__libcpp_numeric_limitsIlLb1EE3maxB8ue170006Ev, symObjAddr: 0x3EC8, symBinAddr: 0x10000509C, symSize: 0x8 }
  - { offsetInCU: 0x16513, offset: 0x16513, size: 0x8, addend: 0x0, symName: __ZNSt12length_errorC1B8ue170006EPKc, symObjAddr: 0x3F34, symBinAddr: 0x100005108, symSize: 0x34 }
  - { offsetInCU: 0x1654B, offset: 0x1654B, size: 0x8, addend: 0x0, symName: __ZNSt12length_errorC2B8ue170006EPKc, symObjAddr: 0x3F68, symBinAddr: 0x10000513C, symSize: 0x4C }
  - { offsetInCU: 0x16583, offset: 0x16583, size: 0x8, addend: 0x0, symName: __ZNSt3__19allocatorINS_12basic_stringIcNS_11char_traitsIcEENS0_IcEEEEE8allocateB8ue170006Em, symObjAddr: 0x3FB4, symBinAddr: 0x100005188, symSize: 0x5C }
  - { offsetInCU: 0x165B7, offset: 0x165B7, size: 0x8, addend: 0x0, symName: __ZNSt3__117__compressed_pairIPNS_12basic_stringIcNS_11char_traitsIcEENS_9allocatorIcEEEENS4_IS6_EEE6secondB8ue170006Ev, symObjAddr: 0x4090, symBinAddr: 0x100005264, symSize: 0x24 }
  - { offsetInCU: 0x165DD, offset: 0x165DD, size: 0x8, addend: 0x0, symName: __ZNSt3__122__compressed_pair_elemINS_9allocatorINS_12basic_stringIcNS_11char_traitsIcEENS1_IcEEEEEELi1ELb1EE5__getB8ue170006Ev, symObjAddr: 0x40B4, symBinAddr: 0x100005288, symSize: 0x14 }
  - { offsetInCU: 0x16603, offset: 0x16603, size: 0x8, addend: 0x0, symName: __ZNSt3__117__compressed_pairIPNS_12basic_stringIcNS_11char_traitsIcEENS_9allocatorIcEEEENS4_IS6_EEE5firstB8ue170006Ev, symObjAddr: 0x40C8, symBinAddr: 0x10000529C, symSize: 0x24 }
  - { offsetInCU: 0x16629, offset: 0x16629, size: 0x8, addend: 0x0, symName: __ZNSt3__122__compressed_pair_elemIPNS_12basic_stringIcNS_11char_traitsIcEENS_9allocatorIcEEEELi0ELb0EE5__getB8ue170006Ev, symObjAddr: 0x40EC, symBinAddr: 0x1000052C0, symSize: 0x14 }
  - { offsetInCU: 0x1664F, offset: 0x1664F, size: 0x8, addend: 0x0, symName: __ZNKSt3__16vectorINS_12basic_stringIcNS_11char_traitsIcEENS_9allocatorIcEEEENS4_IS6_EEE31__annotate_contiguous_containerB8ue170006EPKvSA_SA_SA_, symObjAddr: 0x4100, symBinAddr: 0x1000052D4, symSize: 0x20 }
  - { offsetInCU: 0x166A5, offset: 0x166A5, size: 0x8, addend: 0x0, symName: __ZNKSt3__16vectorINS_12basic_stringIcNS_11char_traitsIcEENS_9allocatorIcEEEENS4_IS6_EEE4dataB8ue170006Ev, symObjAddr: 0x4120, symBinAddr: 0x1000052F4, symSize: 0x28 }
  - { offsetInCU: 0x166CB, offset: 0x166CB, size: 0x8, addend: 0x0, symName: __ZNKSt3__16vectorINS_12basic_stringIcNS_11char_traitsIcEENS_9allocatorIcEEEENS4_IS6_EEE8capacityB8ue170006Ev, symObjAddr: 0x4148, symBinAddr: 0x10000531C, symSize: 0x40 }
  - { offsetInCU: 0x166F1, offset: 0x166F1, size: 0x8, addend: 0x0, symName: __ZNKSt3__16vectorINS_12basic_stringIcNS_11char_traitsIcEENS_9allocatorIcEEEENS4_IS6_EEE9__end_capB8ue170006Ev, symObjAddr: 0x419C, symBinAddr: 0x100005370, symSize: 0x28 }
  - { offsetInCU: 0x16717, offset: 0x16717, size: 0x8, addend: 0x0, symName: __ZNKSt3__117__compressed_pairIPNS_12basic_stringIcNS_11char_traitsIcEENS_9allocatorIcEEEENS4_IS6_EEE5firstB8ue170006Ev, symObjAddr: 0x41C4, symBinAddr: 0x100005398, symSize: 0x24 }
  - { offsetInCU: 0x1673D, offset: 0x1673D, size: 0x8, addend: 0x0, symName: __ZNKSt3__122__compressed_pair_elemIPNS_12basic_stringIcNS_11char_traitsIcEENS_9allocatorIcEEEELi0ELb0EE5__getB8ue170006Ev, symObjAddr: 0x41E8, symBinAddr: 0x1000053BC, symSize: 0x14 }
  - { offsetInCU: 0x1677C, offset: 0x1677C, size: 0x8, addend: 0x0, symName: __ZNSt3__16vectorINS_12basic_stringIcNS_11char_traitsIcEENS_9allocatorIcEEEENS4_IS6_EEE21_ConstructTransactionC1B8ue170006ERS8_m, symObjAddr: 0x41FC, symBinAddr: 0x1000053D0, symSize: 0x3C }
  - { offsetInCU: 0x167C4, offset: 0x167C4, size: 0x8, addend: 0x0, symName: __ZNSt3__16vectorINS_12basic_stringIcNS_11char_traitsIcEENS_9allocatorIcEEEENS4_IS6_EEE21_ConstructTransactionD1B8ue170006Ev, symObjAddr: 0x42B8, symBinAddr: 0x10000548C, symSize: 0x2C }
  - { offsetInCU: 0x167EE, offset: 0x167EE, size: 0x8, addend: 0x0, symName: __ZNSt3__16vectorINS_12basic_stringIcNS_11char_traitsIcEENS_9allocatorIcEEEENS4_IS6_EEE21_ConstructTransactionC2B8ue170006ERS8_m, symObjAddr: 0x42E4, symBinAddr: 0x1000054B8, symSize: 0x4C }
  - { offsetInCU: 0x16854, offset: 0x16854, size: 0x8, addend: 0x0, symName: __ZNSt3__14pairIPKNS_12basic_stringIcNS_11char_traitsIcEENS_9allocatorIcEEEES8_EC1B8ue170006IS8_S8_LPv0EEEOT_OT0_, symObjAddr: 0x4540, symBinAddr: 0x100005714, symSize: 0x3C }
  - { offsetInCU: 0x168B2, offset: 0x168B2, size: 0x8, addend: 0x0, symName: __ZNSt3__14pairIPKNS_12basic_stringIcNS_11char_traitsIcEENS_9allocatorIcEEEES8_EC2B8ue170006IS8_S8_LPv0EEEOT_OT0_, symObjAddr: 0x457C, symBinAddr: 0x100005750, symSize: 0x34 }
  - { offsetInCU: 0x16910, offset: 0x16910, size: 0x8, addend: 0x0, symName: __ZNSt3__118__unwrap_iter_implIPKNS_12basic_stringIcNS_11char_traitsIcEENS_9allocatorIcEEEELb1EE8__unwrapB8ue170006ES8_, symObjAddr: 0x45B0, symBinAddr: 0x100005784, symSize: 0x24 }
  - { offsetInCU: 0x16933, offset: 0x16933, size: 0x8, addend: 0x0, symName: __ZNSt3__129_AllocatorDestroyRangeReverseINS_9allocatorINS_12basic_stringIcNS_11char_traitsIcEENS1_IcEEEEEEPS6_EC1B8ue170006ERS7_RS8_SB_, symObjAddr: 0x4634, symBinAddr: 0x100005808, symSize: 0x44 }
  - { offsetInCU: 0x1698A, offset: 0x1698A, size: 0x8, addend: 0x0, symName: __ZNSt3__116allocator_traitsINS_9allocatorINS_12basic_stringIcNS_11char_traitsIcEENS1_IcEEEEEEE9constructB8ue170006IS6_JRKS6_EvEEvRS7_PT_DpOT0_, symObjAddr: 0x4678, symBinAddr: 0x10000584C, symSize: 0x34 }
  - { offsetInCU: 0x169E1, offset: 0x169E1, size: 0x8, addend: 0x0, symName: __ZNSt3__128__exception_guard_exceptionsINS_29_AllocatorDestroyRangeReverseINS_9allocatorINS_12basic_stringIcNS_11char_traitsIcEENS2_IcEEEEEEPS7_EEE10__completeB8ue170006Ev, symObjAddr: 0x46AC, symBinAddr: 0x100005880, symSize: 0x1C }
  - { offsetInCU: 0x16A07, offset: 0x16A07, size: 0x8, addend: 0x0, symName: __ZNSt3__128__exception_guard_exceptionsINS_29_AllocatorDestroyRangeReverseINS_9allocatorINS_12basic_stringIcNS_11char_traitsIcEENS2_IcEEEEEEPS7_EEED1B8ue170006Ev, symObjAddr: 0x46C8, symBinAddr: 0x10000589C, symSize: 0x2C }
  - { offsetInCU: 0x16A31, offset: 0x16A31, size: 0x8, addend: 0x0, symName: __ZNSt3__128__exception_guard_exceptionsINS_29_AllocatorDestroyRangeReverseINS_9allocatorINS_12basic_stringIcNS_11char_traitsIcEENS2_IcEEEEEEPS7_EEEC1B8ue170006ESA_, symObjAddr: 0x46F4, symBinAddr: 0x1000058C8, symSize: 0x34 }
  - { offsetInCU: 0x16A6A, offset: 0x16A6A, size: 0x8, addend: 0x0, symName: __ZNSt3__128__exception_guard_exceptionsINS_29_AllocatorDestroyRangeReverseINS_9allocatorINS_12basic_stringIcNS_11char_traitsIcEENS2_IcEEEEEEPS7_EEEC2B8ue170006ESA_, symObjAddr: 0x4728, symBinAddr: 0x1000058FC, symSize: 0x30 }
  - { offsetInCU: 0x16AA3, offset: 0x16AA3, size: 0x8, addend: 0x0, symName: __ZNSt3__129_AllocatorDestroyRangeReverseINS_9allocatorINS_12basic_stringIcNS_11char_traitsIcEENS1_IcEEEEEEPS6_EC2B8ue170006ERS7_RS8_SB_, symObjAddr: 0x4758, symBinAddr: 0x10000592C, symSize: 0x38 }
  - { offsetInCU: 0x16AFA, offset: 0x16AFA, size: 0x8, addend: 0x0, symName: __ZNSt3__19allocatorINS_12basic_stringIcNS_11char_traitsIcEENS0_IcEEEEE9constructB8ue170006IS5_JRKS5_EEEvPT_DpOT0_, symObjAddr: 0x4790, symBinAddr: 0x100005964, symSize: 0x30 }
  - { offsetInCU: 0x16B50, offset: 0x16B50, size: 0x8, addend: 0x0, symName: __ZNSt3__128__exception_guard_exceptionsINS_29_AllocatorDestroyRangeReverseINS_9allocatorINS_12basic_stringIcNS_11char_traitsIcEENS2_IcEEEEEEPS7_EEED2B8ue170006Ev, symObjAddr: 0x47C0, symBinAddr: 0x100005994, symSize: 0x50 }
  - { offsetInCU: 0x16B7A, offset: 0x16B7A, size: 0x8, addend: 0x0, symName: __ZNKSt3__129_AllocatorDestroyRangeReverseINS_9allocatorINS_12basic_stringIcNS_11char_traitsIcEENS1_IcEEEEEEPS6_EclB8ue170006Ev, symObjAddr: 0x4810, symBinAddr: 0x1000059E4, symSize: 0x68 }
  - { offsetInCU: 0x16BA0, offset: 0x16BA0, size: 0x8, addend: 0x0, symName: __ZNSt3__116reverse_iteratorIPNS_12basic_stringIcNS_11char_traitsIcEENS_9allocatorIcEEEEEC1B8ue170006ES7_, symObjAddr: 0x48E8, symBinAddr: 0x100005ABC, symSize: 0x34 }
  - { offsetInCU: 0x16BD8, offset: 0x16BD8, size: 0x8, addend: 0x0, symName: __ZNSt3__116allocator_traitsINS_9allocatorINS_12basic_stringIcNS_11char_traitsIcEENS1_IcEEEEEEE7destroyB8ue170006IS6_vEEvRS7_PT_, symObjAddr: 0x4964, symBinAddr: 0x100005B38, symSize: 0x2C }
  - { offsetInCU: 0x16C15, offset: 0x16C15, size: 0x8, addend: 0x0, symName: __ZNSt3__116reverse_iteratorIPNS_12basic_stringIcNS_11char_traitsIcEENS_9allocatorIcEEEEEppB8ue170006Ev, symObjAddr: 0x49B4, symBinAddr: 0x100005B88, symSize: 0x20 }
  - { offsetInCU: 0x16C3B, offset: 0x16C3B, size: 0x8, addend: 0x0, symName: __ZNKSt3__116reverse_iteratorIPNS_12basic_stringIcNS_11char_traitsIcEENS_9allocatorIcEEEEE4baseB8ue170006Ev, symObjAddr: 0x49D4, symBinAddr: 0x100005BA8, symSize: 0x18 }
  - { offsetInCU: 0x16C61, offset: 0x16C61, size: 0x8, addend: 0x0, symName: __ZNSt3__19allocatorINS_12basic_stringIcNS_11char_traitsIcEENS0_IcEEEEE7destroyB8ue170006EPS5_, symObjAddr: 0x49EC, symBinAddr: 0x100005BC0, symSize: 0x28 }
  - { offsetInCU: 0x16C9A, offset: 0x16C9A, size: 0x8, addend: 0x0, symName: __ZNSt3__119__to_address_helperINS_16reverse_iteratorIPNS_12basic_stringIcNS_11char_traitsIcEENS_9allocatorIcEEEEEEvE6__callB8ue170006ERKS9_, symObjAddr: 0x4A14, symBinAddr: 0x100005BE8, symSize: 0x38 }
  - { offsetInCU: 0x16CBD, offset: 0x16CBD, size: 0x8, addend: 0x0, symName: __ZNKSt3__116reverse_iteratorIPNS_12basic_stringIcNS_11char_traitsIcEENS_9allocatorIcEEEEEptB8ue170006Ev, symObjAddr: 0x4A4C, symBinAddr: 0x100005C20, symSize: 0x24 }
  - { offsetInCU: 0x16CE3, offset: 0x16CE3, size: 0x8, addend: 0x0, symName: __ZNKSt3__116reverse_iteratorIPNS_12basic_stringIcNS_11char_traitsIcEENS_9allocatorIcEEEEEdeB8ue170006Ev, symObjAddr: 0x4A70, symBinAddr: 0x100005C44, symSize: 0x28 }
  - { offsetInCU: 0x16D17, offset: 0x16D17, size: 0x8, addend: 0x0, symName: __ZNSt3__116reverse_iteratorIPNS_12basic_stringIcNS_11char_traitsIcEENS_9allocatorIcEEEEEC2B8ue170006ES7_, symObjAddr: 0x4A98, symBinAddr: 0x100005C6C, symSize: 0x28 }
  - { offsetInCU: 0x16D4F, offset: 0x16D4F, size: 0x8, addend: 0x0, symName: __ZNSt3__118__unwrap_iter_implIPNS_12basic_stringIcNS_11char_traitsIcEENS_9allocatorIcEEEELb1EE8__unwrapB8ue170006ES7_, symObjAddr: 0x4AC0, symBinAddr: 0x100005C94, symSize: 0x24 }
  - { offsetInCU: 0x16D72, offset: 0x16D72, size: 0x8, addend: 0x0, symName: __ZNSt3__118__unwrap_iter_implIPNS_12basic_stringIcNS_11char_traitsIcEENS_9allocatorIcEEEELb1EE8__rewrapB8ue170006ES7_S7_, symObjAddr: 0x4AE4, symBinAddr: 0x100005CB8, symSize: 0x58 }
  - { offsetInCU: 0x16DA3, offset: 0x16DA3, size: 0x8, addend: 0x0, symName: __ZNSt3__16vectorINS_12basic_stringIcNS_11char_traitsIcEENS_9allocatorIcEEEENS4_IS6_EEE21_ConstructTransactionD2B8ue170006Ev, symObjAddr: 0x4B3C, symBinAddr: 0x100005D10, symSize: 0x20 }
  - { offsetInCU: 0x16DCD, offset: 0x16DCD, size: 0x8, addend: 0x0, symName: __ZNSt3__128__exception_guard_exceptionsINS_6vectorINS_12basic_stringIcNS_11char_traitsIcEENS_9allocatorIcEEEENS5_IS7_EEE16__destroy_vectorEED2B8ue170006Ev, symObjAddr: 0x4B5C, symBinAddr: 0x100005D30, symSize: 0x50 }
  - { offsetInCU: 0x16DF7, offset: 0x16DF7, size: 0x8, addend: 0x0, symName: __ZNSt3__16vectorINS_12basic_stringIcNS_11char_traitsIcEENS_9allocatorIcEEEENS4_IS6_EEE16__destroy_vectorclB8ue170006Ev, symObjAddr: 0x4BAC, symBinAddr: 0x100005D80, symSize: 0x90 }
  - { offsetInCU: 0x16E1D, offset: 0x16E1D, size: 0x8, addend: 0x0, symName: __ZNSt3__16vectorINS_12basic_stringIcNS_11char_traitsIcEENS_9allocatorIcEEEENS4_IS6_EEE7__clearB8ue170006Ev, symObjAddr: 0x4C3C, symBinAddr: 0x100005E10, symSize: 0x28 }
  - { offsetInCU: 0x16E43, offset: 0x16E43, size: 0x8, addend: 0x0, symName: __ZNKSt3__16vectorINS_12basic_stringIcNS_11char_traitsIcEENS_9allocatorIcEEEENS4_IS6_EEE17__annotate_deleteB8ue170006Ev, symObjAddr: 0x4C64, symBinAddr: 0x100005E38, symSize: 0xD4 }
  - { offsetInCU: 0x16E69, offset: 0x16E69, size: 0x8, addend: 0x0, symName: __ZNSt3__116allocator_traitsINS_9allocatorINS_12basic_stringIcNS_11char_traitsIcEENS1_IcEEEEEEE10deallocateB8ue170006ERS7_PS6_m, symObjAddr: 0x4D38, symBinAddr: 0x100005F0C, symSize: 0x34 }
  - { offsetInCU: 0x16EAB, offset: 0x16EAB, size: 0x8, addend: 0x0, symName: __ZNSt3__16vectorINS_12basic_stringIcNS_11char_traitsIcEENS_9allocatorIcEEEENS4_IS6_EEE22__base_destruct_at_endB8ue170006EPS6_, symObjAddr: 0x4D6C, symBinAddr: 0x100005F40, symSize: 0x8C }
  - { offsetInCU: 0x16EEF, offset: 0x16EEF, size: 0x8, addend: 0x0, symName: __ZNKSt3__16vectorINS_12basic_stringIcNS_11char_traitsIcEENS_9allocatorIcEEEENS4_IS6_EEE4sizeB8ue170006Ev, symObjAddr: 0x4DF8, symBinAddr: 0x100005FCC, symSize: 0x28 }
  - { offsetInCU: 0x16F15, offset: 0x16F15, size: 0x8, addend: 0x0, symName: __ZNSt3__19allocatorINS_12basic_stringIcNS_11char_traitsIcEENS0_IcEEEEE10deallocateB8ue170006EPS5_m, symObjAddr: 0x4E20, symBinAddr: 0x100005FF4, symSize: 0x44 }
  - { offsetInCU: 0x16F57, offset: 0x16F57, size: 0x8, addend: 0x0, symName: __ZNSt3__16vectorINS_12basic_stringIcNS_11char_traitsIcEENS_9allocatorIcEEEENS4_IS6_EEED2B8ue170006Ev, symObjAddr: 0x4E64, symBinAddr: 0x100006038, symSize: 0x40 }
  - { offsetInCU: 0x16F81, offset: 0x16F81, size: 0x8, addend: 0x0, symName: __ZNSt3__13mapIcNS_12basic_stringIcNS_11char_traitsIcEENS_9allocatorIcEEEENS_4lessIcEENS4_INS_4pairIKcS6_EEEEEC2B8ue170006ESt16initializer_listISB_ERKS8_, symObjAddr: 0x4EA4, symBinAddr: 0x100006078, symSize: 0xA4 }
  - { offsetInCU: 0x16FC9, offset: 0x16FC9, size: 0x8, addend: 0x0, symName: __ZNSt3__119__map_value_compareIcNS_12__value_typeIcNS_12basic_stringIcNS_11char_traitsIcEENS_9allocatorIcEEEEEENS_4lessIcEELb1EEC1B8ue170006ESA_, symObjAddr: 0x4F48, symBinAddr: 0x10000611C, symSize: 0x2C }
  - { offsetInCU: 0x17002, offset: 0x17002, size: 0x8, addend: 0x0, symName: __ZNSt3__16__treeINS_12__value_typeIcNS_12basic_stringIcNS_11char_traitsIcEENS_9allocatorIcEEEEEENS_19__map_value_compareIcS8_NS_4lessIcEELb1EEENS5_IS8_EEEC1ERKSC_, symObjAddr: 0x4F74, symBinAddr: 0x100006148, symSize: 0x34 }
  - { offsetInCU: 0x1703D, offset: 0x1703D, size: 0x8, addend: 0x0, symName: __ZNSt3__13mapIcNS_12basic_stringIcNS_11char_traitsIcEENS_9allocatorIcEEEENS_4lessIcEENS4_INS_4pairIKcS6_EEEEE6insertB8ue170006IPKSB_EEvT_SH_, symObjAddr: 0x4FA8, symBinAddr: 0x10000617C, symSize: 0x8C }
  - { offsetInCU: 0x170A7, offset: 0x170A7, size: 0x8, addend: 0x0, symName: __ZNKSt16initializer_listINSt3__14pairIKcNS0_12basic_stringIcNS0_11char_traitsIcEENS0_9allocatorIcEEEEEEE5beginB8ue170006Ev, symObjAddr: 0x5034, symBinAddr: 0x100006208, symSize: 0x18 }
  - { offsetInCU: 0x170CD, offset: 0x170CD, size: 0x8, addend: 0x0, symName: __ZNKSt16initializer_listINSt3__14pairIKcNS0_12basic_stringIcNS0_11char_traitsIcEENS0_9allocatorIcEEEEEEE3endB8ue170006Ev, symObjAddr: 0x504C, symBinAddr: 0x100006220, symSize: 0x20 }
  - { offsetInCU: 0x170F3, offset: 0x170F3, size: 0x8, addend: 0x0, symName: __ZNSt3__16__treeINS_12__value_typeIcNS_12basic_stringIcNS_11char_traitsIcEENS_9allocatorIcEEEEEENS_19__map_value_compareIcS8_NS_4lessIcEELb1EEENS5_IS8_EEED1Ev, symObjAddr: 0x506C, symBinAddr: 0x100006240, symSize: 0x2C }
  - { offsetInCU: 0x1711F, offset: 0x1711F, size: 0x8, addend: 0x0, symName: __ZNSt3__119__map_value_compareIcNS_12__value_typeIcNS_12basic_stringIcNS_11char_traitsIcEENS_9allocatorIcEEEEEENS_4lessIcEELb1EEC2B8ue170006ESA_, symObjAddr: 0x5098, symBinAddr: 0x10000626C, symSize: 0x14 }
  - { offsetInCU: 0x17158, offset: 0x17158, size: 0x8, addend: 0x0, symName: __ZNSt3__16__treeINS_12__value_typeIcNS_12basic_stringIcNS_11char_traitsIcEENS_9allocatorIcEEEEEENS_19__map_value_compareIcS8_NS_4lessIcEELb1EEENS5_IS8_EEEC2ERKSC_, symObjAddr: 0x50AC, symBinAddr: 0x100006280, symSize: 0x7C }
  - { offsetInCU: 0x17193, offset: 0x17193, size: 0x8, addend: 0x0, symName: __ZNSt3__117__compressed_pairINS_15__tree_end_nodeIPNS_16__tree_node_baseIPvEEEENS_9allocatorINS_11__tree_nodeINS_12__value_typeIcNS_12basic_stringIcNS_11char_traitsIcEENS7_IcEEEEEES3_EEEEEC1B8ue170006ILb1EvEEv, symObjAddr: 0x5128, symBinAddr: 0x1000062FC, symSize: 0x2C }
  - { offsetInCU: 0x171C8, offset: 0x171C8, size: 0x8, addend: 0x0, symName: __ZNSt3__117__compressed_pairImNS_19__map_value_compareIcNS_12__value_typeIcNS_12basic_stringIcNS_11char_traitsIcEENS_9allocatorIcEEEEEENS_4lessIcEELb1EEEEC1B8ue170006IiRKSC_EEOT_OT0_, symObjAddr: 0x5154, symBinAddr: 0x100006328, symSize: 0x3C }
  - { offsetInCU: 0x17220, offset: 0x17220, size: 0x8, addend: 0x0, symName: __ZNSt3__16__treeINS_12__value_typeIcNS_12basic_stringIcNS_11char_traitsIcEENS_9allocatorIcEEEEEENS_19__map_value_compareIcS8_NS_4lessIcEELb1EEENS5_IS8_EEE10__end_nodeB8ue170006Ev, symObjAddr: 0x5190, symBinAddr: 0x100006364, symSize: 0x2C }
  - { offsetInCU: 0x17246, offset: 0x17246, size: 0x8, addend: 0x0, symName: __ZNSt3__16__treeINS_12__value_typeIcNS_12basic_stringIcNS_11char_traitsIcEENS_9allocatorIcEEEEEENS_19__map_value_compareIcS8_NS_4lessIcEELb1EEENS5_IS8_EEE12__begin_nodeB8ue170006Ev, symObjAddr: 0x51BC, symBinAddr: 0x100006390, symSize: 0x14 }
  - { offsetInCU: 0x1726C, offset: 0x1726C, size: 0x8, addend: 0x0, symName: __ZNSt3__117__compressed_pairINS_15__tree_end_nodeIPNS_16__tree_node_baseIPvEEEENS_9allocatorINS_11__tree_nodeINS_12__value_typeIcNS_12basic_stringIcNS_11char_traitsIcEENS7_IcEEEEEES3_EEEEEC2B8ue170006ILb1EvEEv, symObjAddr: 0x51D0, symBinAddr: 0x1000063A4, symSize: 0x34 }
  - { offsetInCU: 0x172A1, offset: 0x172A1, size: 0x8, addend: 0x0, symName: __ZNSt3__122__compressed_pair_elemINS_9allocatorINS_11__tree_nodeINS_12__value_typeIcNS_12basic_stringIcNS_11char_traitsIcEENS1_IcEEEEEEPvEEEELi1ELb1EEC2B8ue170006ENS_16__value_init_tagE, symObjAddr: 0x5204, symBinAddr: 0x1000063D8, symSize: 0x2C }
  - { offsetInCU: 0x172D5, offset: 0x172D5, size: 0x8, addend: 0x0, symName: __ZNSt3__19allocatorINS_11__tree_nodeINS_12__value_typeIcNS_12basic_stringIcNS_11char_traitsIcEENS0_IcEEEEEEPvEEEC2B8ue170006Ev, symObjAddr: 0x5230, symBinAddr: 0x100006404, symSize: 0x2C }
  - { offsetInCU: 0x172FF, offset: 0x172FF, size: 0x8, addend: 0x0, symName: __ZNSt3__116__non_trivial_ifILb1ENS_9allocatorINS_11__tree_nodeINS_12__value_typeIcNS_12basic_stringIcNS_11char_traitsIcEENS1_IcEEEEEEPvEEEEEC2B8ue170006Ev, symObjAddr: 0x525C, symBinAddr: 0x100006430, symSize: 0x14 }
  - { offsetInCU: 0x17329, offset: 0x17329, size: 0x8, addend: 0x0, symName: __ZNSt3__117__compressed_pairImNS_19__map_value_compareIcNS_12__value_typeIcNS_12basic_stringIcNS_11char_traitsIcEENS_9allocatorIcEEEEEENS_4lessIcEELb1EEEEC2B8ue170006IiRKSC_EEOT_OT0_, symObjAddr: 0x5270, symBinAddr: 0x100006444, symSize: 0x44 }
  - { offsetInCU: 0x17381, offset: 0x17381, size: 0x8, addend: 0x0, symName: __ZNSt3__122__compressed_pair_elemINS_19__map_value_compareIcNS_12__value_typeIcNS_12basic_stringIcNS_11char_traitsIcEENS_9allocatorIcEEEEEENS_4lessIcEELb1EEELi1ELb1EEC2B8ue170006IRKSC_vEEOT_, symObjAddr: 0x52B4, symBinAddr: 0x100006488, symSize: 0x18 }
  - { offsetInCU: 0x173C3, offset: 0x173C3, size: 0x8, addend: 0x0, symName: __ZNSt3__117__compressed_pairINS_15__tree_end_nodeIPNS_16__tree_node_baseIPvEEEENS_9allocatorINS_11__tree_nodeINS_12__value_typeIcNS_12basic_stringIcNS_11char_traitsIcEENS7_IcEEEEEES3_EEEEE5firstB8ue170006Ev, symObjAddr: 0x52CC, symBinAddr: 0x1000064A0, symSize: 0x24 }
  - { offsetInCU: 0x173E9, offset: 0x173E9, size: 0x8, addend: 0x0, symName: __ZNKSt3__13mapIcNS_12basic_stringIcNS_11char_traitsIcEENS_9allocatorIcEEEENS_4lessIcEENS4_INS_4pairIKcS6_EEEEE4cendB8ue170006Ev, symObjAddr: 0x52F0, symBinAddr: 0x1000064C4, symSize: 0x2C }
  - { offsetInCU: 0x1740F, offset: 0x1740F, size: 0x8, addend: 0x0, symName: __ZNSt3__13mapIcNS_12basic_stringIcNS_11char_traitsIcEENS_9allocatorIcEEEENS_4lessIcEENS4_INS_4pairIKcS6_EEEEE6insertB8ue170006ENS_20__map_const_iteratorINS_21__tree_const_iteratorINS_12__value_typeIcS6_EEPNS_11__tree_nodeISH_PvEElEEEERKSB_, symObjAddr: 0x531C, symBinAddr: 0x1000064F0, symSize: 0x50 }
  - { offsetInCU: 0x17453, offset: 0x17453, size: 0x8, addend: 0x0, symName: __ZNSt3__120__map_const_iteratorINS_21__tree_const_iteratorINS_12__value_typeIcNS_12basic_stringIcNS_11char_traitsIcEENS_9allocatorIcEEEEEEPNS_11__tree_nodeIS9_PvEElEEEC1B8ue170006ESE_, symObjAddr: 0x536C, symBinAddr: 0x100006540, symSize: 0x34 }
  - { offsetInCU: 0x1748C, offset: 0x1748C, size: 0x8, addend: 0x0, symName: __ZNKSt3__13mapIcNS_12basic_stringIcNS_11char_traitsIcEENS_9allocatorIcEEEENS_4lessIcEENS4_INS_4pairIKcS6_EEEEE3endB8ue170006Ev, symObjAddr: 0x53A0, symBinAddr: 0x100006574, symSize: 0x38 }
  - { offsetInCU: 0x174B2, offset: 0x174B2, size: 0x8, addend: 0x0, symName: __ZNKSt3__16__treeINS_12__value_typeIcNS_12basic_stringIcNS_11char_traitsIcEENS_9allocatorIcEEEEEENS_19__map_value_compareIcS8_NS_4lessIcEELb1EEENS5_IS8_EEE3endB8ue170006Ev, symObjAddr: 0x53D8, symBinAddr: 0x1000065AC, symSize: 0x34 }
  - { offsetInCU: 0x174D8, offset: 0x174D8, size: 0x8, addend: 0x0, symName: __ZNKSt3__16__treeINS_12__value_typeIcNS_12basic_stringIcNS_11char_traitsIcEENS_9allocatorIcEEEEEENS_19__map_value_compareIcS8_NS_4lessIcEELb1EEENS5_IS8_EEE10__end_nodeB8ue170006Ev, symObjAddr: 0x540C, symBinAddr: 0x1000065E0, symSize: 0x2C }
  - { offsetInCU: 0x174FE, offset: 0x174FE, size: 0x8, addend: 0x0, symName: __ZNSt3__121__tree_const_iteratorINS_12__value_typeIcNS_12basic_stringIcNS_11char_traitsIcEENS_9allocatorIcEEEEEEPNS_11__tree_nodeIS8_PvEElEC1B8ue170006EPNS_15__tree_end_nodeIPNS_16__tree_node_baseISA_EEEE, symObjAddr: 0x5438, symBinAddr: 0x10000660C, symSize: 0x34 }
  - { offsetInCU: 0x17537, offset: 0x17537, size: 0x8, addend: 0x0, symName: __ZNKSt3__117__compressed_pairINS_15__tree_end_nodeIPNS_16__tree_node_baseIPvEEEENS_9allocatorINS_11__tree_nodeINS_12__value_typeIcNS_12basic_stringIcNS_11char_traitsIcEENS7_IcEEEEEES3_EEEEE5firstB8ue170006Ev, symObjAddr: 0x546C, symBinAddr: 0x100006640, symSize: 0x24 }
  - { offsetInCU: 0x1755D, offset: 0x1755D, size: 0x8, addend: 0x0, symName: __ZNSt3__121__tree_const_iteratorINS_12__value_typeIcNS_12basic_stringIcNS_11char_traitsIcEENS_9allocatorIcEEEEEEPNS_11__tree_nodeIS8_PvEElEC2B8ue170006EPNS_15__tree_end_nodeIPNS_16__tree_node_baseISA_EEEE, symObjAddr: 0x5490, symBinAddr: 0x100006664, symSize: 0x20 }
  - { offsetInCU: 0x17596, offset: 0x17596, size: 0x8, addend: 0x0, symName: __ZNSt3__16__treeINS_12__value_typeIcNS_12basic_stringIcNS_11char_traitsIcEENS_9allocatorIcEEEEEENS_19__map_value_compareIcS8_NS_4lessIcEELb1EEENS5_IS8_EEE15__insert_uniqueB8ue170006ENS_21__tree_const_iteratorIS8_PNS_11__tree_nodeIS8_PvEElEERKNS_4pairIKcS7_EE, symObjAddr: 0x54B0, symBinAddr: 0x100006684, symSize: 0x64 }
  - { offsetInCU: 0x175DA, offset: 0x175DA, size: 0x8, addend: 0x0, symName: __ZNSt3__114__map_iteratorINS_15__tree_iteratorINS_12__value_typeIcNS_12basic_stringIcNS_11char_traitsIcEENS_9allocatorIcEEEEEEPNS_11__tree_nodeIS9_PvEElEEEC1B8ue170006ESE_, symObjAddr: 0x5514, symBinAddr: 0x1000066E8, symSize: 0x34 }
  - { offsetInCU: 0x17613, offset: 0x17613, size: 0x8, addend: 0x0, symName: __ZNSt3__16__treeINS_12__value_typeIcNS_12basic_stringIcNS_11char_traitsIcEENS_9allocatorIcEEEEEENS_19__map_value_compareIcS8_NS_4lessIcEELb1EEENS5_IS8_EEE30__emplace_hint_unique_key_argsIcJRKNS_4pairIKcS7_EEEEENSG_INS_15__tree_iteratorIS8_PNS_11__tree_nodeIS8_PvEElEEbEENS_21__tree_const_iteratorIS8_SP_lEERKT_DpOT0_, symObjAddr: 0x5548, symBinAddr: 0x10000671C, symSize: 0x104 }
  - { offsetInCU: 0x176DF, offset: 0x176DF, size: 0x8, addend: 0x0, symName: __ZNSt3__122__tree_key_value_typesINS_12__value_typeIcNS_12basic_stringIcNS_11char_traitsIcEENS_9allocatorIcEEEEEEE9__get_keyB8ue170006IKNS_4pairIKcS7_EEEENS_9enable_ifIXsr17__is_same_uncvrefIT_SD_EE5valueERSC_E4typeERSG_, symObjAddr: 0x564C, symBinAddr: 0x100006820, symSize: 0x14 }
  - { offsetInCU: 0x1770C, offset: 0x1770C, size: 0x8, addend: 0x0, symName: __ZNSt3__16__treeINS_12__value_typeIcNS_12basic_stringIcNS_11char_traitsIcEENS_9allocatorIcEEEEEENS_19__map_value_compareIcS8_NS_4lessIcEELb1EEENS5_IS8_EEE12__find_equalIcEERPNS_16__tree_node_baseIPvEENS_21__tree_const_iteratorIS8_PNS_11__tree_nodeIS8_SH_EElEERPNS_15__tree_end_nodeISJ_EESK_RKT_, symObjAddr: 0x5660, symBinAddr: 0x100006834, symSize: 0x304 }
  - { offsetInCU: 0x177B5, offset: 0x177B5, size: 0x8, addend: 0x0, symName: __ZNSt3__16__treeINS_12__value_typeIcNS_12basic_stringIcNS_11char_traitsIcEENS_9allocatorIcEEEEEENS_19__map_value_compareIcS8_NS_4lessIcEELb1EEENS5_IS8_EEE16__construct_nodeIJRKNS_4pairIKcS7_EEEEENS_10unique_ptrINS_11__tree_nodeIS8_PvEENS_22__tree_node_destructorINS5_ISO_EEEEEEDpOT_, symObjAddr: 0x5964, symBinAddr: 0x100006B38, symSize: 0x110 }
  - { offsetInCU: 0x17816, offset: 0x17816, size: 0x8, addend: 0x0, symName: __ZNSt3__16__treeINS_12__value_typeIcNS_12basic_stringIcNS_11char_traitsIcEENS_9allocatorIcEEEEEENS_19__map_value_compareIcS8_NS_4lessIcEELb1EEENS5_IS8_EEE16__insert_node_atEPNS_15__tree_end_nodeIPNS_16__tree_node_baseIPvEEEERSJ_SJ_, symObjAddr: 0x5A74, symBinAddr: 0x100006C48, symSize: 0xCC }
  - { offsetInCU: 0x1786B, offset: 0x1786B, size: 0x8, addend: 0x0, symName: __ZNKSt3__110unique_ptrINS_11__tree_nodeINS_12__value_typeIcNS_12basic_stringIcNS_11char_traitsIcEENS_9allocatorIcEEEEEEPvEENS_22__tree_node_destructorINS6_ISB_EEEEE3getB8ue170006Ev, symObjAddr: 0x5B40, symBinAddr: 0x100006D14, symSize: 0x28 }
  - { offsetInCU: 0x17891, offset: 0x17891, size: 0x8, addend: 0x0, symName: __ZNSt3__110unique_ptrINS_11__tree_nodeINS_12__value_typeIcNS_12basic_stringIcNS_11char_traitsIcEENS_9allocatorIcEEEEEEPvEENS_22__tree_node_destructorINS6_ISB_EEEEE7releaseB8ue170006Ev, symObjAddr: 0x5B68, symBinAddr: 0x100006D3C, symSize: 0x44 }
  - { offsetInCU: 0x178C6, offset: 0x178C6, size: 0x8, addend: 0x0, symName: __ZNSt3__110unique_ptrINS_11__tree_nodeINS_12__value_typeIcNS_12basic_stringIcNS_11char_traitsIcEENS_9allocatorIcEEEEEEPvEENS_22__tree_node_destructorINS6_ISB_EEEEED1B8ue170006Ev, symObjAddr: 0x5BAC, symBinAddr: 0x100006D80, symSize: 0x2C }
  - { offsetInCU: 0x178F0, offset: 0x178F0, size: 0x8, addend: 0x0, symName: __ZNSt3__115__tree_iteratorINS_12__value_typeIcNS_12basic_stringIcNS_11char_traitsIcEENS_9allocatorIcEEEEEEPNS_11__tree_nodeIS8_PvEElEC1B8ue170006ESC_, symObjAddr: 0x5BD8, symBinAddr: 0x100006DAC, symSize: 0x34 }
  - { offsetInCU: 0x17933, offset: 0x17933, size: 0x8, addend: 0x0, symName: __ZNSt3__14pairINS_15__tree_iteratorINS_12__value_typeIcNS_12basic_stringIcNS_11char_traitsIcEENS_9allocatorIcEEEEEEPNS_11__tree_nodeIS9_PvEElEEbEC1B8ue170006ISE_RbLSB_0EEEOT_OT0_, symObjAddr: 0x5C0C, symBinAddr: 0x100006DE0, symSize: 0x3C }
  - { offsetInCU: 0x17991, offset: 0x17991, size: 0x8, addend: 0x0, symName: __ZNSt3__16__treeINS_12__value_typeIcNS_12basic_stringIcNS_11char_traitsIcEENS_9allocatorIcEEEEEENS_19__map_value_compareIcS8_NS_4lessIcEELb1EEENS5_IS8_EEE3endB8ue170006Ev, symObjAddr: 0x5C78, symBinAddr: 0x100006E4C, symSize: 0x34 }
  - { offsetInCU: 0x179B7, offset: 0x179B7, size: 0x8, addend: 0x0, symName: __ZNSt3__121__tree_const_iteratorINS_12__value_typeIcNS_12basic_stringIcNS_11char_traitsIcEENS_9allocatorIcEEEEEEPNS_11__tree_nodeIS8_PvEElEC1B8ue170006ENS_15__tree_iteratorIS8_SC_lEE, symObjAddr: 0x5CAC, symBinAddr: 0x100006E80, symSize: 0x34 }
  - { offsetInCU: 0x179F0, offset: 0x179F0, size: 0x8, addend: 0x0, symName: __ZNSt3__16__treeINS_12__value_typeIcNS_12basic_stringIcNS_11char_traitsIcEENS_9allocatorIcEEEEEENS_19__map_value_compareIcS8_NS_4lessIcEELb1EEENS5_IS8_EEE10value_compB8ue170006Ev, symObjAddr: 0x5CE0, symBinAddr: 0x100006EB4, symSize: 0x28 }
  - { offsetInCU: 0x17A16, offset: 0x17A16, size: 0x8, addend: 0x0, symName: __ZNKSt3__119__map_value_compareIcNS_12__value_typeIcNS_12basic_stringIcNS_11char_traitsIcEENS_9allocatorIcEEEEEENS_4lessIcEELb1EEclB8ue170006ERKcRKS8_, symObjAddr: 0x5D08, symBinAddr: 0x100006EDC, symSize: 0x50 }
  - { offsetInCU: 0x17A5A, offset: 0x17A5A, size: 0x8, addend: 0x0, symName: __ZNKSt3__121__tree_const_iteratorINS_12__value_typeIcNS_12basic_stringIcNS_11char_traitsIcEENS_9allocatorIcEEEEEEPNS_11__tree_nodeIS8_PvEElEdeB8ue170006Ev, symObjAddr: 0x5D58, symBinAddr: 0x100006F2C, symSize: 0x28 }
  - { offsetInCU: 0x17A80, offset: 0x17A80, size: 0x8, addend: 0x0, symName: __ZNSt3__16__treeINS_12__value_typeIcNS_12basic_stringIcNS_11char_traitsIcEENS_9allocatorIcEEEEEENS_19__map_value_compareIcS8_NS_4lessIcEELb1EEENS5_IS8_EEE5beginB8ue170006Ev, symObjAddr: 0x5D80, symBinAddr: 0x100006F54, symSize: 0x34 }
  - { offsetInCU: 0x17AA6, offset: 0x17AA6, size: 0x8, addend: 0x0, symName: __ZNKSt3__119__map_value_compareIcNS_12__value_typeIcNS_12basic_stringIcNS_11char_traitsIcEENS_9allocatorIcEEEEEENS_4lessIcEELb1EEclB8ue170006ERKS8_RKc, symObjAddr: 0x5DB4, symBinAddr: 0x100006F88, symSize: 0x48 }
  - { offsetInCU: 0x17AEA, offset: 0x17AEA, size: 0x8, addend: 0x0, symName: __ZNSt3__121__tree_const_iteratorINS_12__value_typeIcNS_12basic_stringIcNS_11char_traitsIcEENS_9allocatorIcEEEEEEPNS_11__tree_nodeIS8_PvEElEmmB8ue170006Ev, symObjAddr: 0x5DFC, symBinAddr: 0x100006FD0, symSize: 0x38 }
  - { offsetInCU: 0x17B10, offset: 0x17B10, size: 0x8, addend: 0x0, symName: __ZNSt3__16__treeINS_12__value_typeIcNS_12basic_stringIcNS_11char_traitsIcEENS_9allocatorIcEEEEEENS_19__map_value_compareIcS8_NS_4lessIcEELb1EEENS5_IS8_EEE12__find_equalIcEERPNS_16__tree_node_baseIPvEERPNS_15__tree_end_nodeISJ_EERKT_, symObjAddr: 0x5E34, symBinAddr: 0x100007008, symSize: 0x184 }
  - { offsetInCU: 0x17B7D, offset: 0x17B7D, size: 0x8, addend: 0x0, symName: __ZNKSt3__121__tree_const_iteratorINS_12__value_typeIcNS_12basic_stringIcNS_11char_traitsIcEENS_9allocatorIcEEEEEEPNS_11__tree_nodeIS8_PvEElE8__get_npB8ue170006Ev, symObjAddr: 0x5FF4, symBinAddr: 0x1000071C8, symSize: 0x18 }
  - { offsetInCU: 0x17BA3, offset: 0x17BA3, size: 0x8, addend: 0x0, symName: __ZNSt3__115__tree_iteratorINS_12__value_typeIcNS_12basic_stringIcNS_11char_traitsIcEENS_9allocatorIcEEEEEEPNS_11__tree_nodeIS8_PvEElEC1B8ue170006EPNS_15__tree_end_nodeIPNS_16__tree_node_baseISA_EEEE, symObjAddr: 0x600C, symBinAddr: 0x1000071E0, symSize: 0x34 }
  - { offsetInCU: 0x17BDC, offset: 0x17BDC, size: 0x8, addend: 0x0, symName: __ZNSt3__115__tree_iteratorINS_12__value_typeIcNS_12basic_stringIcNS_11char_traitsIcEENS_9allocatorIcEEEEEEPNS_11__tree_nodeIS8_PvEElEC2B8ue170006EPNS_15__tree_end_nodeIPNS_16__tree_node_baseISA_EEEE, symObjAddr: 0x6040, symBinAddr: 0x100007214, symSize: 0x20 }
  - { offsetInCU: 0x17C15, offset: 0x17C15, size: 0x8, addend: 0x0, symName: __ZNSt3__121__tree_const_iteratorINS_12__value_typeIcNS_12basic_stringIcNS_11char_traitsIcEENS_9allocatorIcEEEEEEPNS_11__tree_nodeIS8_PvEElEC2B8ue170006ENS_15__tree_iteratorIS8_SC_lEE, symObjAddr: 0x6060, symBinAddr: 0x100007234, symSize: 0x20 }
  - { offsetInCU: 0x17C4E, offset: 0x17C4E, size: 0x8, addend: 0x0, symName: __ZNSt3__117__compressed_pairImNS_19__map_value_compareIcNS_12__value_typeIcNS_12basic_stringIcNS_11char_traitsIcEENS_9allocatorIcEEEEEENS_4lessIcEELb1EEEE6secondB8ue170006Ev, symObjAddr: 0x6080, symBinAddr: 0x100007254, symSize: 0x24 }
  - { offsetInCU: 0x17C74, offset: 0x17C74, size: 0x8, addend: 0x0, symName: __ZNSt3__122__compressed_pair_elemINS_19__map_value_compareIcNS_12__value_typeIcNS_12basic_stringIcNS_11char_traitsIcEENS_9allocatorIcEEEEEENS_4lessIcEELb1EEELi1ELb1EE5__getB8ue170006Ev, symObjAddr: 0x60A4, symBinAddr: 0x100007278, symSize: 0x14 }
  - { offsetInCU: 0x17C9A, offset: 0x17C9A, size: 0x8, addend: 0x0, symName: __ZNKSt3__14lessIcEclB8ue170006ERKcS3_, symObjAddr: 0x60B8, symBinAddr: 0x10000728C, symSize: 0x34 }
  - { offsetInCU: 0x17CDE, offset: 0x17CDE, size: 0x8, addend: 0x0, symName: __ZNKSt3__112__value_typeIcNS_12basic_stringIcNS_11char_traitsIcEENS_9allocatorIcEEEEE11__get_valueB8ue170006Ev, symObjAddr: 0x60EC, symBinAddr: 0x1000072C0, symSize: 0x14 }
  - { offsetInCU: 0x17D04, offset: 0x17D04, size: 0x8, addend: 0x0, symName: __ZNKSt3__116__tree_node_baseIPvE15__parent_unsafeB8ue170006Ev, symObjAddr: 0x6210, symBinAddr: 0x1000073E4, symSize: 0x18 }
  - { offsetInCU: 0x17D2A, offset: 0x17D2A, size: 0x8, addend: 0x0, symName: __ZNKSt3__16__treeINS_12__value_typeIcNS_12basic_stringIcNS_11char_traitsIcEENS_9allocatorIcEEEEEENS_19__map_value_compareIcS8_NS_4lessIcEELb1EEENS5_IS8_EEE6__rootB8ue170006Ev, symObjAddr: 0x6228, symBinAddr: 0x1000073FC, symSize: 0x28 }
  - { offsetInCU: 0x17D50, offset: 0x17D50, size: 0x8, addend: 0x0, symName: __ZNKSt3__16__treeINS_12__value_typeIcNS_12basic_stringIcNS_11char_traitsIcEENS_9allocatorIcEEEEEENS_19__map_value_compareIcS8_NS_4lessIcEELb1EEENS5_IS8_EEE10__root_ptrB8ue170006Ev, symObjAddr: 0x6250, symBinAddr: 0x100007424, symSize: 0x24 }
  - { offsetInCU: 0x17D76, offset: 0x17D76, size: 0x8, addend: 0x0, symName: __ZNSt3__121__tree_const_iteratorINS_12__value_typeIcNS_12basic_stringIcNS_11char_traitsIcEENS_9allocatorIcEEEEEEPNS_11__tree_nodeIS8_PvEElEppB8ue170006Ev, symObjAddr: 0x6364, symBinAddr: 0x100007538, symSize: 0x38 }
  - { offsetInCU: 0x17D9C, offset: 0x17D9C, size: 0x8, addend: 0x0, symName: __ZNSt3__16__treeINS_12__value_typeIcNS_12basic_stringIcNS_11char_traitsIcEENS_9allocatorIcEEEEEENS_19__map_value_compareIcS8_NS_4lessIcEELb1EEENS5_IS8_EEE12__node_allocB8ue170006Ev, symObjAddr: 0x645C, symBinAddr: 0x100007630, symSize: 0x28 }
  - { offsetInCU: 0x17DC2, offset: 0x17DC2, size: 0x8, addend: 0x0, symName: __ZNSt3__116allocator_traitsINS_9allocatorINS_11__tree_nodeINS_12__value_typeIcNS_12basic_stringIcNS_11char_traitsIcEENS1_IcEEEEEEPvEEEEE8allocateB8ue170006ERSC_m, symObjAddr: 0x6484, symBinAddr: 0x100007658, symSize: 0x2C }
  - { offsetInCU: 0x17DF5, offset: 0x17DF5, size: 0x8, addend: 0x0, symName: __ZNSt3__122__tree_node_destructorINS_9allocatorINS_11__tree_nodeINS_12__value_typeIcNS_12basic_stringIcNS_11char_traitsIcEENS1_IcEEEEEEPvEEEEEC1B8ue170006ERSC_b, symObjAddr: 0x64B0, symBinAddr: 0x100007684, symSize: 0x48 }
  - { offsetInCU: 0x17E42, offset: 0x17E42, size: 0x8, addend: 0x0, symName: __ZNSt3__110unique_ptrINS_11__tree_nodeINS_12__value_typeIcNS_12basic_stringIcNS_11char_traitsIcEENS_9allocatorIcEEEEEEPvEENS_22__tree_node_destructorINS6_ISB_EEEEEC1B8ue170006ILb1EvEEPSB_NS_16__dependent_typeINS_27__unique_ptr_deleter_sfinaeISE_EEXT_EE20__good_rval_ref_typeE, symObjAddr: 0x64F8, symBinAddr: 0x1000076CC, symSize: 0x3C }
  - { offsetInCU: 0x17E93, offset: 0x17E93, size: 0x8, addend: 0x0, symName: __ZNSt3__116allocator_traitsINS_9allocatorINS_11__tree_nodeINS_12__value_typeIcNS_12basic_stringIcNS_11char_traitsIcEENS1_IcEEEEEEPvEEEEE9constructB8ue170006INS_4pairIKcS8_EEJRKSH_EvEEvRSC_PT_DpOT0_, symObjAddr: 0x6534, symBinAddr: 0x100007708, symSize: 0x34 }
  - { offsetInCU: 0x17EEA, offset: 0x17EEA, size: 0x8, addend: 0x0, symName: __ZNSt3__122__tree_key_value_typesINS_12__value_typeIcNS_12basic_stringIcNS_11char_traitsIcEENS_9allocatorIcEEEEEEE9__get_ptrB8ue170006ERS8_, symObjAddr: 0x6568, symBinAddr: 0x10000773C, symSize: 0x24 }
  - { offsetInCU: 0x17F0E, offset: 0x17F0E, size: 0x8, addend: 0x0, symName: __ZNKSt3__110unique_ptrINS_11__tree_nodeINS_12__value_typeIcNS_12basic_stringIcNS_11char_traitsIcEENS_9allocatorIcEEEEEEPvEENS_22__tree_node_destructorINS6_ISB_EEEEEptB8ue170006Ev, symObjAddr: 0x658C, symBinAddr: 0x100007760, symSize: 0x28 }
  - { offsetInCU: 0x17F34, offset: 0x17F34, size: 0x8, addend: 0x0, symName: __ZNSt3__110unique_ptrINS_11__tree_nodeINS_12__value_typeIcNS_12basic_stringIcNS_11char_traitsIcEENS_9allocatorIcEEEEEEPvEENS_22__tree_node_destructorINS6_ISB_EEEEE11get_deleterB8ue170006Ev, symObjAddr: 0x65B4, symBinAddr: 0x100007788, symSize: 0x24 }
  - { offsetInCU: 0x17F5A, offset: 0x17F5A, size: 0x8, addend: 0x0, symName: __ZNSt3__117__compressed_pairINS_15__tree_end_nodeIPNS_16__tree_node_baseIPvEEEENS_9allocatorINS_11__tree_nodeINS_12__value_typeIcNS_12basic_stringIcNS_11char_traitsIcEENS7_IcEEEEEES3_EEEEE6secondB8ue170006Ev, symObjAddr: 0x65D8, symBinAddr: 0x1000077AC, symSize: 0x24 }
  - { offsetInCU: 0x17F80, offset: 0x17F80, size: 0x8, addend: 0x0, symName: __ZNSt3__122__compressed_pair_elemINS_9allocatorINS_11__tree_nodeINS_12__value_typeIcNS_12basic_stringIcNS_11char_traitsIcEENS1_IcEEEEEEPvEEEELi1ELb1EE5__getB8ue170006Ev, symObjAddr: 0x65FC, symBinAddr: 0x1000077D0, symSize: 0x14 }
  - { offsetInCU: 0x17FA6, offset: 0x17FA6, size: 0x8, addend: 0x0, symName: __ZNSt3__19allocatorINS_11__tree_nodeINS_12__value_typeIcNS_12basic_stringIcNS_11char_traitsIcEENS0_IcEEEEEEPvEEE8allocateB8ue170006Em, symObjAddr: 0x6610, symBinAddr: 0x1000077E4, symSize: 0x58 }
  - { offsetInCU: 0x17FE4, offset: 0x17FE4, size: 0x8, addend: 0x0, symName: __ZNSt3__116allocator_traitsINS_9allocatorINS_11__tree_nodeINS_12__value_typeIcNS_12basic_stringIcNS_11char_traitsIcEENS1_IcEEEEEEPvEEEEE8max_sizeB8ue170006ISC_vEEmRKSC_, symObjAddr: 0x6668, symBinAddr: 0x10000783C, symSize: 0x24 }
  - { offsetInCU: 0x18012, offset: 0x18012, size: 0x8, addend: 0x0, symName: __ZNKSt3__19allocatorINS_11__tree_nodeINS_12__value_typeIcNS_12basic_stringIcNS_11char_traitsIcEENS0_IcEEEEEEPvEEE8max_sizeB8ue170006Ev, symObjAddr: 0x668C, symBinAddr: 0x100007860, symSize: 0x14 }
  - { offsetInCU: 0x18038, offset: 0x18038, size: 0x8, addend: 0x0, symName: __ZNSt3__122__tree_node_destructorINS_9allocatorINS_11__tree_nodeINS_12__value_typeIcNS_12basic_stringIcNS_11char_traitsIcEENS1_IcEEEEEEPvEEEEEC2B8ue170006ERSC_b, symObjAddr: 0x66A0, symBinAddr: 0x100007874, symSize: 0x38 }
  - { offsetInCU: 0x18080, offset: 0x18080, size: 0x8, addend: 0x0, symName: __ZNSt3__110unique_ptrINS_11__tree_nodeINS_12__value_typeIcNS_12basic_stringIcNS_11char_traitsIcEENS_9allocatorIcEEEEEEPvEENS_22__tree_node_destructorINS6_ISB_EEEEEC2B8ue170006ILb1EvEEPSB_NS_16__dependent_typeINS_27__unique_ptr_deleter_sfinaeISE_EEXT_EE20__good_rval_ref_typeE, symObjAddr: 0x66D8, symBinAddr: 0x1000078AC, symSize: 0x48 }
  - { offsetInCU: 0x180D1, offset: 0x180D1, size: 0x8, addend: 0x0, symName: __ZNSt3__117__compressed_pairIPNS_11__tree_nodeINS_12__value_typeIcNS_12basic_stringIcNS_11char_traitsIcEENS_9allocatorIcEEEEEEPvEENS_22__tree_node_destructorINS6_ISB_EEEEEC1B8ue170006IRSC_SF_EEOT_OT0_, symObjAddr: 0x6720, symBinAddr: 0x1000078F4, symSize: 0x3C }
  - { offsetInCU: 0x18129, offset: 0x18129, size: 0x8, addend: 0x0, symName: __ZNSt3__117__compressed_pairIPNS_11__tree_nodeINS_12__value_typeIcNS_12basic_stringIcNS_11char_traitsIcEENS_9allocatorIcEEEEEEPvEENS_22__tree_node_destructorINS6_ISB_EEEEEC2B8ue170006IRSC_SF_EEOT_OT0_, symObjAddr: 0x675C, symBinAddr: 0x100007930, symSize: 0x48 }
  - { offsetInCU: 0x18181, offset: 0x18181, size: 0x8, addend: 0x0, symName: __ZNSt3__122__compressed_pair_elemIPNS_11__tree_nodeINS_12__value_typeIcNS_12basic_stringIcNS_11char_traitsIcEENS_9allocatorIcEEEEEEPvEELi0ELb0EEC2B8ue170006IRSC_vEEOT_, symObjAddr: 0x67A4, symBinAddr: 0x100007978, symSize: 0x24 }
  - { offsetInCU: 0x181C3, offset: 0x181C3, size: 0x8, addend: 0x0, symName: __ZNSt3__122__compressed_pair_elemINS_22__tree_node_destructorINS_9allocatorINS_11__tree_nodeINS_12__value_typeIcNS_12basic_stringIcNS_11char_traitsIcEENS2_IcEEEEEEPvEEEEEELi1ELb0EEC2B8ue170006ISE_vEEOT_, symObjAddr: 0x67C8, symBinAddr: 0x10000799C, symSize: 0x24 }
  - { offsetInCU: 0x18205, offset: 0x18205, size: 0x8, addend: 0x0, symName: __ZNSt3__19allocatorINS_11__tree_nodeINS_12__value_typeIcNS_12basic_stringIcNS_11char_traitsIcEENS0_IcEEEEEEPvEEE9constructB8ue170006INS_4pairIKcS7_EEJRKSF_EEEvPT_DpOT0_, symObjAddr: 0x67EC, symBinAddr: 0x1000079C0, symSize: 0x30 }
  - { offsetInCU: 0x1825B, offset: 0x1825B, size: 0x8, addend: 0x0, symName: __ZNSt3__14pairIKcNS_12basic_stringIcNS_11char_traitsIcEENS_9allocatorIcEEEEEC1B8ue170006ERKS8_, symObjAddr: 0x681C, symBinAddr: 0x1000079F0, symSize: 0x34 }
  - { offsetInCU: 0x1828F, offset: 0x1828F, size: 0x8, addend: 0x0, symName: __ZNSt3__14pairIKcNS_12basic_stringIcNS_11char_traitsIcEENS_9allocatorIcEEEEEC2B8ue170006ERKS8_, symObjAddr: 0x6850, symBinAddr: 0x100007A24, symSize: 0x48 }
  - { offsetInCU: 0x182C3, offset: 0x182C3, size: 0x8, addend: 0x0, symName: __ZNSt3__112__value_typeIcNS_12basic_stringIcNS_11char_traitsIcEENS_9allocatorIcEEEEE11__get_valueB8ue170006Ev, symObjAddr: 0x6898, symBinAddr: 0x100007A6C, symSize: 0x14 }
  - { offsetInCU: 0x182E9, offset: 0x182E9, size: 0x8, addend: 0x0, symName: __ZNKSt3__117__compressed_pairIPNS_11__tree_nodeINS_12__value_typeIcNS_12basic_stringIcNS_11char_traitsIcEENS_9allocatorIcEEEEEEPvEENS_22__tree_node_destructorINS6_ISB_EEEEE5firstB8ue170006Ev, symObjAddr: 0x68AC, symBinAddr: 0x100007A80, symSize: 0x24 }
  - { offsetInCU: 0x1830F, offset: 0x1830F, size: 0x8, addend: 0x0, symName: __ZNKSt3__122__compressed_pair_elemIPNS_11__tree_nodeINS_12__value_typeIcNS_12basic_stringIcNS_11char_traitsIcEENS_9allocatorIcEEEEEEPvEELi0ELb0EE5__getB8ue170006Ev, symObjAddr: 0x68D0, symBinAddr: 0x100007AA4, symSize: 0x14 }
  - { offsetInCU: 0x18335, offset: 0x18335, size: 0x8, addend: 0x0, symName: __ZNSt3__117__compressed_pairIPNS_11__tree_nodeINS_12__value_typeIcNS_12basic_stringIcNS_11char_traitsIcEENS_9allocatorIcEEEEEEPvEENS_22__tree_node_destructorINS6_ISB_EEEEE6secondB8ue170006Ev, symObjAddr: 0x68E4, symBinAddr: 0x100007AB8, symSize: 0x28 }
  - { offsetInCU: 0x1835B, offset: 0x1835B, size: 0x8, addend: 0x0, symName: __ZNSt3__122__compressed_pair_elemINS_22__tree_node_destructorINS_9allocatorINS_11__tree_nodeINS_12__value_typeIcNS_12basic_stringIcNS_11char_traitsIcEENS2_IcEEEEEEPvEEEEEELi1ELb0EE5__getB8ue170006Ev, symObjAddr: 0x690C, symBinAddr: 0x100007AE0, symSize: 0x14 }
  - { offsetInCU: 0x18381, offset: 0x18381, size: 0x8, addend: 0x0, symName: __ZNSt3__16__treeINS_12__value_typeIcNS_12basic_stringIcNS_11char_traitsIcEENS_9allocatorIcEEEEEENS_19__map_value_compareIcS8_NS_4lessIcEELb1EEENS5_IS8_EEE4sizeB8ue170006Ev, symObjAddr: 0x6B9C, symBinAddr: 0x100007D70, symSize: 0x28 }
  - { offsetInCU: 0x183A7, offset: 0x183A7, size: 0x8, addend: 0x0, symName: __ZNSt3__116__tree_node_baseIPvE12__set_parentB8ue170006EPS2_, symObjAddr: 0x6D68, symBinAddr: 0x100007F3C, symSize: 0x20 }
  - { offsetInCU: 0x183DC, offset: 0x183DC, size: 0x8, addend: 0x0, symName: __ZNSt3__117__compressed_pairImNS_19__map_value_compareIcNS_12__value_typeIcNS_12basic_stringIcNS_11char_traitsIcEENS_9allocatorIcEEEEEENS_4lessIcEELb1EEEE5firstB8ue170006Ev, symObjAddr: 0x6D88, symBinAddr: 0x100007F5C, symSize: 0x24 }
  - { offsetInCU: 0x18402, offset: 0x18402, size: 0x8, addend: 0x0, symName: __ZNSt3__122__compressed_pair_elemImLi0ELb0EE5__getB8ue170006Ev, symObjAddr: 0x6DAC, symBinAddr: 0x100007F80, symSize: 0x14 }
  - { offsetInCU: 0x18428, offset: 0x18428, size: 0x8, addend: 0x0, symName: __ZNSt3__117__compressed_pairIPNS_11__tree_nodeINS_12__value_typeIcNS_12basic_stringIcNS_11char_traitsIcEENS_9allocatorIcEEEEEEPvEENS_22__tree_node_destructorINS6_ISB_EEEEE5firstB8ue170006Ev, symObjAddr: 0x6DC0, symBinAddr: 0x100007F94, symSize: 0x24 }
  - { offsetInCU: 0x1844E, offset: 0x1844E, size: 0x8, addend: 0x0, symName: __ZNSt3__122__compressed_pair_elemIPNS_11__tree_nodeINS_12__value_typeIcNS_12basic_stringIcNS_11char_traitsIcEENS_9allocatorIcEEEEEEPvEELi0ELb0EE5__getB8ue170006Ev, symObjAddr: 0x6DE4, symBinAddr: 0x100007FB8, symSize: 0x14 }
  - { offsetInCU: 0x18474, offset: 0x18474, size: 0x8, addend: 0x0, symName: __ZNSt3__110unique_ptrINS_11__tree_nodeINS_12__value_typeIcNS_12basic_stringIcNS_11char_traitsIcEENS_9allocatorIcEEEEEEPvEENS_22__tree_node_destructorINS6_ISB_EEEEED2B8ue170006Ev, symObjAddr: 0x6DF8, symBinAddr: 0x100007FCC, symSize: 0x30 }
  - { offsetInCU: 0x1849E, offset: 0x1849E, size: 0x8, addend: 0x0, symName: __ZNSt3__110unique_ptrINS_11__tree_nodeINS_12__value_typeIcNS_12basic_stringIcNS_11char_traitsIcEENS_9allocatorIcEEEEEEPvEENS_22__tree_node_destructorINS6_ISB_EEEEE5resetB8ue170006EPSB_, symObjAddr: 0x6E28, symBinAddr: 0x100007FFC, symSize: 0x78 }
  - { offsetInCU: 0x184E2, offset: 0x184E2, size: 0x8, addend: 0x0, symName: __ZNSt3__122__tree_node_destructorINS_9allocatorINS_11__tree_nodeINS_12__value_typeIcNS_12basic_stringIcNS_11char_traitsIcEENS1_IcEEEEEEPvEEEEEclB8ue170006EPSB_, symObjAddr: 0x6EA0, symBinAddr: 0x100008074, symSize: 0x98 }
  - { offsetInCU: 0x18517, offset: 0x18517, size: 0x8, addend: 0x0, symName: __ZNSt3__116allocator_traitsINS_9allocatorINS_11__tree_nodeINS_12__value_typeIcNS_12basic_stringIcNS_11char_traitsIcEENS1_IcEEEEEEPvEEEEE7destroyB8ue170006INS_4pairIKcS8_EEvvEEvRSC_PT_, symObjAddr: 0x6F38, symBinAddr: 0x10000810C, symSize: 0x28 }
  - { offsetInCU: 0x18552, offset: 0x18552, size: 0x8, addend: 0x0, symName: __ZNSt3__116allocator_traitsINS_9allocatorINS_11__tree_nodeINS_12__value_typeIcNS_12basic_stringIcNS_11char_traitsIcEENS1_IcEEEEEEPvEEEEE10deallocateB8ue170006ERSC_PSB_m, symObjAddr: 0x6F60, symBinAddr: 0x100008134, symSize: 0x34 }
  - { offsetInCU: 0x18594, offset: 0x18594, size: 0x8, addend: 0x0, symName: __ZNSt3__19allocatorINS_11__tree_nodeINS_12__value_typeIcNS_12basic_stringIcNS_11char_traitsIcEENS0_IcEEEEEEPvEEE10deallocateB8ue170006EPSA_m, symObjAddr: 0x6F94, symBinAddr: 0x100008168, symSize: 0x40 }
  - { offsetInCU: 0x185D6, offset: 0x185D6, size: 0x8, addend: 0x0, symName: __ZNSt3__115__tree_iteratorINS_12__value_typeIcNS_12basic_stringIcNS_11char_traitsIcEENS_9allocatorIcEEEEEEPNS_11__tree_nodeIS8_PvEElEC2B8ue170006ESC_, symObjAddr: 0x6FD4, symBinAddr: 0x1000081A8, symSize: 0x20 }
  - { offsetInCU: 0x1860F, offset: 0x1860F, size: 0x8, addend: 0x0, symName: __ZNSt3__14pairINS_15__tree_iteratorINS_12__value_typeIcNS_12basic_stringIcNS_11char_traitsIcEENS_9allocatorIcEEEEEEPNS_11__tree_nodeIS9_PvEElEEbEC2B8ue170006ISE_RbLSB_0EEEOT_OT0_, symObjAddr: 0x6FF4, symBinAddr: 0x1000081C8, symSize: 0x38 }
  - { offsetInCU: 0x1866D, offset: 0x1866D, size: 0x8, addend: 0x0, symName: __ZNSt3__114__map_iteratorINS_15__tree_iteratorINS_12__value_typeIcNS_12basic_stringIcNS_11char_traitsIcEENS_9allocatorIcEEEEEEPNS_11__tree_nodeIS9_PvEElEEEC2B8ue170006ESE_, symObjAddr: 0x702C, symBinAddr: 0x100008200, symSize: 0x20 }
  - { offsetInCU: 0x186A6, offset: 0x186A6, size: 0x8, addend: 0x0, symName: __ZNSt3__120__map_const_iteratorINS_21__tree_const_iteratorINS_12__value_typeIcNS_12basic_stringIcNS_11char_traitsIcEENS_9allocatorIcEEEEEEPNS_11__tree_nodeIS9_PvEElEEEC2B8ue170006ESE_, symObjAddr: 0x704C, symBinAddr: 0x100008220, symSize: 0x20 }
  - { offsetInCU: 0x186DF, offset: 0x186DF, size: 0x8, addend: 0x0, symName: __ZNSt3__16__treeINS_12__value_typeIcNS_12basic_stringIcNS_11char_traitsIcEENS_9allocatorIcEEEEEENS_19__map_value_compareIcS8_NS_4lessIcEELb1EEENS5_IS8_EEED2Ev, symObjAddr: 0x706C, symBinAddr: 0x100008240, symSize: 0x38 }
  - { offsetInCU: 0x1870B, offset: 0x1870B, size: 0x8, addend: 0x0, symName: __ZNSt3__16__treeINS_12__value_typeIcNS_12basic_stringIcNS_11char_traitsIcEENS_9allocatorIcEEEEEENS_19__map_value_compareIcS8_NS_4lessIcEELb1EEENS5_IS8_EEE7destroyEPNS_11__tree_nodeIS8_PvEE, symObjAddr: 0x70A4, symBinAddr: 0x100008278, symSize: 0xA8 }
  - { offsetInCU: 0x18757, offset: 0x18757, size: 0x8, addend: 0x0, symName: __ZNSt3__13mapIcNS_12basic_stringIcNS_11char_traitsIcEENS_9allocatorIcEEEENS_4lessIcEENS4_INS_4pairIKcS6_EEEEED2B8ue170006Ev, symObjAddr: 0x714C, symBinAddr: 0x100008320, symSize: 0x2C }
  - { offsetInCU: 0x18781, offset: 0x18781, size: 0x8, addend: 0x0, symName: __ZNSt3__16vectorINS_12basic_stringIcNS_11char_traitsIcEENS_9allocatorIcEEEENS4_IS6_EEE11__make_iterB8ue170006EPS6_, symObjAddr: 0x7178, symBinAddr: 0x10000834C, symSize: 0x30 }
  - { offsetInCU: 0x187B6, offset: 0x187B6, size: 0x8, addend: 0x0, symName: __ZNSt3__111__wrap_iterIPNS_12basic_stringIcNS_11char_traitsIcEENS_9allocatorIcEEEEEC1B8ue170006ES7_, symObjAddr: 0x71A8, symBinAddr: 0x10000837C, symSize: 0x34 }
  - { offsetInCU: 0x187EE, offset: 0x187EE, size: 0x8, addend: 0x0, symName: __ZNSt3__111__wrap_iterIPNS_12basic_stringIcNS_11char_traitsIcEENS_9allocatorIcEEEEEC2B8ue170006ES7_, symObjAddr: 0x71DC, symBinAddr: 0x1000083B0, symSize: 0x20 }
  - { offsetInCU: 0x18826, offset: 0x18826, size: 0x8, addend: 0x0, symName: __ZNKSt3__112basic_stringIcNS_11char_traitsIcEENS_9allocatorIcEEE4sizeB8ue170006Ev, symObjAddr: 0x71FC, symBinAddr: 0x1000083D0, symSize: 0x54 }
  - { offsetInCU: 0x1884C, offset: 0x1884C, size: 0x8, addend: 0x0, symName: __ZNKSt3__112basic_stringIcNS_11char_traitsIcEENS_9allocatorIcEEE15__get_long_sizeB8ue170006Ev, symObjAddr: 0x7250, symBinAddr: 0x100008424, symSize: 0x28 }
  - { offsetInCU: 0x18872, offset: 0x18872, size: 0x8, addend: 0x0, symName: __ZNKSt3__112basic_stringIcNS_11char_traitsIcEENS_9allocatorIcEEE16__get_short_sizeB8ue170006Ev, symObjAddr: 0x7278, symBinAddr: 0x10000844C, symSize: 0x34 }
  - { offsetInCU: 0x1891B, offset: 0x1891B, size: 0x8, addend: 0x0, symName: __ZNKSt3__113basic_istreamIcNS_11char_traitsIcEEE6sentrycvbB8ue170006Ev, symObjAddr: 0x72AC, symBinAddr: 0x100008480, symSize: 0x1C }
  - { offsetInCU: 0x18941, offset: 0x18941, size: 0x8, addend: 0x0, symName: __ZNSt3__115basic_streambufIcNS_11char_traitsIcEEE6sbumpcB8ue170006Ev, symObjAddr: 0x72C8, symBinAddr: 0x10000849C, symSize: 0x78 }
  - { offsetInCU: 0x18967, offset: 0x18967, size: 0x8, addend: 0x0, symName: __ZNSt3__111char_traitsIcE12to_char_typeB8ue170006Ei, symObjAddr: 0x7340, symBinAddr: 0x100008514, symSize: 0x18 }
  - { offsetInCU: 0x1898A, offset: 0x1898A, size: 0x8, addend: 0x0, symName: __ZNSt3__18ios_base18__setstate_nothrowB8ue170006Ej, symObjAddr: 0x7358, symBinAddr: 0x10000852C, symSize: 0x64 }
  - { offsetInCU: 0x189BF, offset: 0x189BF, size: 0x8, addend: 0x0, symName: __ZNKSt3__19basic_iosIcNS_11char_traitsIcEEE10exceptionsB8ue170006Ev, symObjAddr: 0x73BC, symBinAddr: 0x100008590, symSize: 0x24 }
  - { offsetInCU: 0x189E5, offset: 0x189E5, size: 0x8, addend: 0x0, symName: __ZNSt3__111char_traitsIcE11to_int_typeB8ue170006Ec, symObjAddr: 0x73E0, symBinAddr: 0x1000085B4, symSize: 0x14 }
  - { offsetInCU: 0x18A09, offset: 0x18A09, size: 0x8, addend: 0x0, symName: __ZNKSt3__18ios_base10exceptionsB8ue170006Ev, symObjAddr: 0x73F4, symBinAddr: 0x1000085C8, symSize: 0x18 }
  - { offsetInCU: 0x18A31, offset: 0x18A31, size: 0x8, addend: 0x0, symName: __ZNSt3__16__treeINS_12__value_typeIcNS_12basic_stringIcNS_11char_traitsIcEENS_9allocatorIcEEEEEENS_19__map_value_compareIcS8_NS_4lessIcEELb1EEENS5_IS8_EEE4findIcEENS_15__tree_iteratorIS8_PNS_11__tree_nodeIS8_PvEElEERKT_, symObjAddr: 0x740C, symBinAddr: 0x1000085E0, symSize: 0xF8 }
  - { offsetInCU: 0x18A80, offset: 0x18A80, size: 0x8, addend: 0x0, symName: __ZNSt3__16__treeINS_12__value_typeIcNS_12basic_stringIcNS_11char_traitsIcEENS_9allocatorIcEEEEEENS_19__map_value_compareIcS8_NS_4lessIcEELb1EEENS5_IS8_EEE13__lower_boundIcEENS_15__tree_iteratorIS8_PNS_11__tree_nodeIS8_PvEElEERKT_SK_PNS_15__tree_end_nodeIPNS_16__tree_node_baseISI_EEEE, symObjAddr: 0x7504, symBinAddr: 0x1000086D8, symSize: 0xA4 }
  - { offsetInCU: 0x18ADE, offset: 0x18ADE, size: 0x8, addend: 0x0, symName: __ZNKSt3__115__tree_iteratorINS_12__value_typeIcNS_12basic_stringIcNS_11char_traitsIcEENS_9allocatorIcEEEEEEPNS_11__tree_nodeIS8_PvEElEdeB8ue170006Ev, symObjAddr: 0x75DC, symBinAddr: 0x1000087B0, symSize: 0x28 }
  - { offsetInCU: 0x18B04, offset: 0x18B04, size: 0x8, addend: 0x0, symName: __ZNKSt3__115__tree_iteratorINS_12__value_typeIcNS_12basic_stringIcNS_11char_traitsIcEENS_9allocatorIcEEEEEEPNS_11__tree_nodeIS8_PvEElE8__get_npB8ue170006Ev, symObjAddr: 0x7634, symBinAddr: 0x100008808, symSize: 0x18 }
  - { offsetInCU: 0x18B3E, offset: 0x18B3E, size: 0x8, addend: 0x0, symName: __ZNSt3__16__treeINS_12__value_typeINS_12basic_stringIcNS_11char_traitsIcEENS_9allocatorIcEEEEdEENS_19__map_value_compareIS7_S8_NS_4lessIS7_EELb1EEENS5_IS8_EEE25__emplace_unique_key_argsIS7_JRKNS_21piecewise_construct_tENS_5tupleIJRKS7_EEENSJ_IJEEEEEENS_4pairINS_15__tree_iteratorIS8_PNS_11__tree_nodeIS8_PvEElEEbEERKT_DpOT0_, symObjAddr: 0x764C, symBinAddr: 0x100008820, symSize: 0x100 }
  - { offsetInCU: 0x18C14, offset: 0x18C14, size: 0x8, addend: 0x0, symName: __ZNKSt3__115__tree_iteratorINS_12__value_typeINS_12basic_stringIcNS_11char_traitsIcEENS_9allocatorIcEEEEdEEPNS_11__tree_nodeIS8_PvEElEptB8ue170006Ev, symObjAddr: 0x777C, symBinAddr: 0x100008950, symSize: 0x2C }
  - { offsetInCU: 0x18C3A, offset: 0x18C3A, size: 0x8, addend: 0x0, symName: __ZNSt3__16__treeINS_12__value_typeINS_12basic_stringIcNS_11char_traitsIcEENS_9allocatorIcEEEEdEENS_19__map_value_compareIS7_S8_NS_4lessIS7_EELb1EEENS5_IS8_EEE12__find_equalIS7_EERPNS_16__tree_node_baseIPvEERPNS_15__tree_end_nodeISJ_EERKT_, symObjAddr: 0x77A8, symBinAddr: 0x10000897C, symSize: 0x184 }
  - { offsetInCU: 0x18CA7, offset: 0x18CA7, size: 0x8, addend: 0x0, symName: __ZNSt3__16__treeINS_12__value_typeINS_12basic_stringIcNS_11char_traitsIcEENS_9allocatorIcEEEEdEENS_19__map_value_compareIS7_S8_NS_4lessIS7_EELb1EEENS5_IS8_EEE16__construct_nodeIJRKNS_21piecewise_construct_tENS_5tupleIJRKS7_EEENSJ_IJEEEEEENS_10unique_ptrINS_11__tree_nodeIS8_PvEENS_22__tree_node_destructorINS5_ISR_EEEEEEDpOT_, symObjAddr: 0x792C, symBinAddr: 0x100008B00, symSize: 0x120 }
  - { offsetInCU: 0x18D30, offset: 0x18D30, size: 0x8, addend: 0x0, symName: __ZNSt3__16__treeINS_12__value_typeINS_12basic_stringIcNS_11char_traitsIcEENS_9allocatorIcEEEEdEENS_19__map_value_compareIS7_S8_NS_4lessIS7_EELb1EEENS5_IS8_EEE16__insert_node_atEPNS_15__tree_end_nodeIPNS_16__tree_node_baseIPvEEEERSJ_SJ_, symObjAddr: 0x7A4C, symBinAddr: 0x100008C20, symSize: 0xCC }
  - { offsetInCU: 0x18D85, offset: 0x18D85, size: 0x8, addend: 0x0, symName: __ZNKSt3__110unique_ptrINS_11__tree_nodeINS_12__value_typeINS_12basic_stringIcNS_11char_traitsIcEENS_9allocatorIcEEEEdEEPvEENS_22__tree_node_destructorINS6_ISB_EEEEE3getB8ue170006Ev, symObjAddr: 0x7B18, symBinAddr: 0x100008CEC, symSize: 0x28 }
  - { offsetInCU: 0x18DAB, offset: 0x18DAB, size: 0x8, addend: 0x0, symName: __ZNSt3__110unique_ptrINS_11__tree_nodeINS_12__value_typeINS_12basic_stringIcNS_11char_traitsIcEENS_9allocatorIcEEEEdEEPvEENS_22__tree_node_destructorINS6_ISB_EEEEE7releaseB8ue170006Ev, symObjAddr: 0x7B40, symBinAddr: 0x100008D14, symSize: 0x44 }
  - { offsetInCU: 0x18DE0, offset: 0x18DE0, size: 0x8, addend: 0x0, symName: __ZNSt3__110unique_ptrINS_11__tree_nodeINS_12__value_typeINS_12basic_stringIcNS_11char_traitsIcEENS_9allocatorIcEEEEdEEPvEENS_22__tree_node_destructorINS6_ISB_EEEEED1B8ue170006Ev, symObjAddr: 0x7B84, symBinAddr: 0x100008D58, symSize: 0x2C }
  - { offsetInCU: 0x18E0A, offset: 0x18E0A, size: 0x8, addend: 0x0, symName: __ZNSt3__115__tree_iteratorINS_12__value_typeINS_12basic_stringIcNS_11char_traitsIcEENS_9allocatorIcEEEEdEEPNS_11__tree_nodeIS8_PvEElEC1B8ue170006ESC_, symObjAddr: 0x7BB0, symBinAddr: 0x100008D84, symSize: 0x34 }
  - { offsetInCU: 0x18E48, offset: 0x18E48, size: 0x8, addend: 0x0, symName: __ZNSt3__14pairINS_15__tree_iteratorINS_12__value_typeINS_12basic_stringIcNS_11char_traitsIcEENS_9allocatorIcEEEEdEEPNS_11__tree_nodeIS9_PvEElEEbEC1B8ue170006ISE_RbLSB_0EEEOT_OT0_, symObjAddr: 0x7BE4, symBinAddr: 0x100008DB8, symSize: 0x3C }
  - { offsetInCU: 0x18EA6, offset: 0x18EA6, size: 0x8, addend: 0x0, symName: __ZNKSt3__16__treeINS_12__value_typeINS_12basic_stringIcNS_11char_traitsIcEENS_9allocatorIcEEEEdEENS_19__map_value_compareIS7_S8_NS_4lessIS7_EELb1EEENS5_IS8_EEE10__root_ptrB8ue170006Ev, symObjAddr: 0x7C20, symBinAddr: 0x100008DF4, symSize: 0x24 }
  - { offsetInCU: 0x18ECC, offset: 0x18ECC, size: 0x8, addend: 0x0, symName: __ZNSt3__16__treeINS_12__value_typeINS_12basic_stringIcNS_11char_traitsIcEENS_9allocatorIcEEEEdEENS_19__map_value_compareIS7_S8_NS_4lessIS7_EELb1EEENS5_IS8_EEE10value_compB8ue170006Ev, symObjAddr: 0x7C44, symBinAddr: 0x100008E18, symSize: 0x28 }
  - { offsetInCU: 0x18EF2, offset: 0x18EF2, size: 0x8, addend: 0x0, symName: __ZNKSt3__119__map_value_compareINS_12basic_stringIcNS_11char_traitsIcEENS_9allocatorIcEEEENS_12__value_typeIS6_dEENS_4lessIS6_EELb1EEclB8ue170006ERKS6_RKS8_, symObjAddr: 0x7C6C, symBinAddr: 0x100008E40, symSize: 0x50 }
  - { offsetInCU: 0x18F36, offset: 0x18F36, size: 0x8, addend: 0x0, symName: __ZNKSt3__119__map_value_compareINS_12basic_stringIcNS_11char_traitsIcEENS_9allocatorIcEEEENS_12__value_typeIS6_dEENS_4lessIS6_EELb1EEclB8ue170006ERKS8_RKS6_, symObjAddr: 0x7CBC, symBinAddr: 0x100008E90, symSize: 0x48 }
  - { offsetInCU: 0x18F7A, offset: 0x18F7A, size: 0x8, addend: 0x0, symName: __ZNSt3__117__compressed_pairImNS_19__map_value_compareINS_12basic_stringIcNS_11char_traitsIcEENS_9allocatorIcEEEENS_12__value_typeIS7_dEENS_4lessIS7_EELb1EEEE6secondB8ue170006Ev, symObjAddr: 0x7D04, symBinAddr: 0x100008ED8, symSize: 0x24 }
  - { offsetInCU: 0x18FA0, offset: 0x18FA0, size: 0x8, addend: 0x0, symName: __ZNSt3__122__compressed_pair_elemINS_19__map_value_compareINS_12basic_stringIcNS_11char_traitsIcEENS_9allocatorIcEEEENS_12__value_typeIS7_dEENS_4lessIS7_EELb1EEELi1ELb1EE5__getB8ue170006Ev, symObjAddr: 0x7D28, symBinAddr: 0x100008EFC, symSize: 0x14 }
  - { offsetInCU: 0x18FC6, offset: 0x18FC6, size: 0x8, addend: 0x0, symName: __ZNKSt3__14lessINS_12basic_stringIcNS_11char_traitsIcEENS_9allocatorIcEEEEEclB8ue170006ERKS6_S9_, symObjAddr: 0x7D3C, symBinAddr: 0x100008F10, symSize: 0x34 }
  - { offsetInCU: 0x1900A, offset: 0x1900A, size: 0x8, addend: 0x0, symName: __ZNKSt3__112__value_typeINS_12basic_stringIcNS_11char_traitsIcEENS_9allocatorIcEEEEdE11__get_valueB8ue170006Ev, symObjAddr: 0x7D70, symBinAddr: 0x100008F44, symSize: 0x14 }
  - { offsetInCU: 0x19030, offset: 0x19030, size: 0x8, addend: 0x0, symName: __ZNKSt3__112basic_stringIcNS_11char_traitsIcEENS_9allocatorIcEEE7compareB8ue170006ERKS5_, symObjAddr: 0x7DBC, symBinAddr: 0x100008F90, symSize: 0x4C }
  - { offsetInCU: 0x19067, offset: 0x19067, size: 0x8, addend: 0x0, symName: __ZNKSt3__112basic_stringIcNS_11char_traitsIcEENS_9allocatorIcEEE7compareINS_17basic_string_viewIcS2_EELi0EEEiRKT_, symObjAddr: 0x7E08, symBinAddr: 0x100008FDC, symSize: 0x12C }
  - { offsetInCU: 0x190EA, offset: 0x190EA, size: 0x8, addend: 0x0, symName: __ZNKSt3__112basic_stringIcNS_11char_traitsIcEENS_9allocatorIcEEEcvNS_17basic_string_viewIcS2_EEB8ue170006Ev, symObjAddr: 0x7F34, symBinAddr: 0x100009108, symSize: 0x50 }
  - { offsetInCU: 0x19110, offset: 0x19110, size: 0x8, addend: 0x0, symName: __ZNKSt3__117basic_string_viewIcNS_11char_traitsIcEEE4sizeB8ue170006Ev, symObjAddr: 0x7F84, symBinAddr: 0x100009158, symSize: 0x18 }
  - { offsetInCU: 0x19136, offset: 0x19136, size: 0x8, addend: 0x0, symName: __ZNSt3__111char_traitsIcE7compareB8ue170006EPKcS3_m, symObjAddr: 0x7F9C, symBinAddr: 0x100009170, symSize: 0x34 }
  - { offsetInCU: 0x19175, offset: 0x19175, size: 0x8, addend: 0x0, symName: __ZNKSt3__117basic_string_viewIcNS_11char_traitsIcEEE4dataB8ue170006Ev, symObjAddr: 0x7FD0, symBinAddr: 0x1000091A4, symSize: 0x18 }
  - { offsetInCU: 0x1919B, offset: 0x1919B, size: 0x8, addend: 0x0, symName: __ZNSt3__117basic_string_viewIcNS_11char_traitsIcEEEC1B8ue170006EPKcm, symObjAddr: 0x7FE8, symBinAddr: 0x1000091BC, symSize: 0x3C }
  - { offsetInCU: 0x191E3, offset: 0x191E3, size: 0x8, addend: 0x0, symName: __ZNSt3__117basic_string_viewIcNS_11char_traitsIcEEEC2B8ue170006EPKcm, symObjAddr: 0x8024, symBinAddr: 0x1000091F8, symSize: 0x2C }
  - { offsetInCU: 0x1922B, offset: 0x1922B, size: 0x8, addend: 0x0, symName: __ZNSt3__116allocator_traitsINS_9allocatorINS_11__tree_nodeINS_12__value_typeINS_12basic_stringIcNS_11char_traitsIcEENS1_IcEEEEdEEPvEEEEE8allocateB8ue170006ERSC_m, symObjAddr: 0x8050, symBinAddr: 0x100009224, symSize: 0x2C }
  - { offsetInCU: 0x1925E, offset: 0x1925E, size: 0x8, addend: 0x0, symName: __ZNSt3__122__tree_node_destructorINS_9allocatorINS_11__tree_nodeINS_12__value_typeINS_12basic_stringIcNS_11char_traitsIcEENS1_IcEEEEdEEPvEEEEEC1B8ue170006ERSC_b, symObjAddr: 0x807C, symBinAddr: 0x100009250, symSize: 0x48 }
  - { offsetInCU: 0x192AB, offset: 0x192AB, size: 0x8, addend: 0x0, symName: __ZNSt3__110unique_ptrINS_11__tree_nodeINS_12__value_typeINS_12basic_stringIcNS_11char_traitsIcEENS_9allocatorIcEEEEdEEPvEENS_22__tree_node_destructorINS6_ISB_EEEEEC1B8ue170006ILb1EvEEPSB_NS_16__dependent_typeINS_27__unique_ptr_deleter_sfinaeISE_EEXT_EE20__good_rval_ref_typeE, symObjAddr: 0x80C4, symBinAddr: 0x100009298, symSize: 0x3C }
  - { offsetInCU: 0x192FC, offset: 0x192FC, size: 0x8, addend: 0x0, symName: __ZNSt3__116allocator_traitsINS_9allocatorINS_11__tree_nodeINS_12__value_typeINS_12basic_stringIcNS_11char_traitsIcEENS1_IcEEEEdEEPvEEEEE9constructB8ue170006INS_4pairIKS8_dEEJRKNS_21piecewise_construct_tENS_5tupleIJRSG_EEENSL_IJEEEEvEEvRSC_PT_DpOT0_, symObjAddr: 0x8100, symBinAddr: 0x1000092D4, symSize: 0x44 }
  - { offsetInCU: 0x1937B, offset: 0x1937B, size: 0x8, addend: 0x0, symName: __ZNKSt3__110unique_ptrINS_11__tree_nodeINS_12__value_typeINS_12basic_stringIcNS_11char_traitsIcEENS_9allocatorIcEEEEdEEPvEENS_22__tree_node_destructorINS6_ISB_EEEEEptB8ue170006Ev, symObjAddr: 0x8144, symBinAddr: 0x100009318, symSize: 0x28 }
  - { offsetInCU: 0x193A1, offset: 0x193A1, size: 0x8, addend: 0x0, symName: __ZNSt3__110unique_ptrINS_11__tree_nodeINS_12__value_typeINS_12basic_stringIcNS_11char_traitsIcEENS_9allocatorIcEEEEdEEPvEENS_22__tree_node_destructorINS6_ISB_EEEEE11get_deleterB8ue170006Ev, symObjAddr: 0x816C, symBinAddr: 0x100009340, symSize: 0x24 }
  - { offsetInCU: 0x193C7, offset: 0x193C7, size: 0x8, addend: 0x0, symName: __ZNSt3__19allocatorINS_11__tree_nodeINS_12__value_typeINS_12basic_stringIcNS_11char_traitsIcEENS0_IcEEEEdEEPvEEE8allocateB8ue170006Em, symObjAddr: 0x8190, symBinAddr: 0x100009364, symSize: 0x58 }
  - { offsetInCU: 0x19405, offset: 0x19405, size: 0x8, addend: 0x0, symName: __ZNSt3__116allocator_traitsINS_9allocatorINS_11__tree_nodeINS_12__value_typeINS_12basic_stringIcNS_11char_traitsIcEENS1_IcEEEEdEEPvEEEEE8max_sizeB8ue170006ISC_vEEmRKSC_, symObjAddr: 0x81E8, symBinAddr: 0x1000093BC, symSize: 0x24 }
  - { offsetInCU: 0x19433, offset: 0x19433, size: 0x8, addend: 0x0, symName: __ZNKSt3__19allocatorINS_11__tree_nodeINS_12__value_typeINS_12basic_stringIcNS_11char_traitsIcEENS0_IcEEEEdEEPvEEE8max_sizeB8ue170006Ev, symObjAddr: 0x820C, symBinAddr: 0x1000093E0, symSize: 0x14 }
  - { offsetInCU: 0x19459, offset: 0x19459, size: 0x8, addend: 0x0, symName: __ZNSt3__122__tree_node_destructorINS_9allocatorINS_11__tree_nodeINS_12__value_typeINS_12basic_stringIcNS_11char_traitsIcEENS1_IcEEEEdEEPvEEEEEC2B8ue170006ERSC_b, symObjAddr: 0x8220, symBinAddr: 0x1000093F4, symSize: 0x38 }
  - { offsetInCU: 0x194A1, offset: 0x194A1, size: 0x8, addend: 0x0, symName: __ZNSt3__110unique_ptrINS_11__tree_nodeINS_12__value_typeINS_12basic_stringIcNS_11char_traitsIcEENS_9allocatorIcEEEEdEEPvEENS_22__tree_node_destructorINS6_ISB_EEEEEC2B8ue170006ILb1EvEEPSB_NS_16__dependent_typeINS_27__unique_ptr_deleter_sfinaeISE_EEXT_EE20__good_rval_ref_typeE, symObjAddr: 0x8258, symBinAddr: 0x10000942C, symSize: 0x48 }
  - { offsetInCU: 0x194F2, offset: 0x194F2, size: 0x8, addend: 0x0, symName: __ZNSt3__117__compressed_pairIPNS_11__tree_nodeINS_12__value_typeINS_12basic_stringIcNS_11char_traitsIcEENS_9allocatorIcEEEEdEEPvEENS_22__tree_node_destructorINS6_ISB_EEEEEC1B8ue170006IRSC_SF_EEOT_OT0_, symObjAddr: 0x82A0, symBinAddr: 0x100009474, symSize: 0x3C }
  - { offsetInCU: 0x1954A, offset: 0x1954A, size: 0x8, addend: 0x0, symName: __ZNSt3__117__compressed_pairIPNS_11__tree_nodeINS_12__value_typeINS_12basic_stringIcNS_11char_traitsIcEENS_9allocatorIcEEEEdEEPvEENS_22__tree_node_destructorINS6_ISB_EEEEEC2B8ue170006IRSC_SF_EEOT_OT0_, symObjAddr: 0x82DC, symBinAddr: 0x1000094B0, symSize: 0x48 }
  - { offsetInCU: 0x195A2, offset: 0x195A2, size: 0x8, addend: 0x0, symName: __ZNSt3__122__compressed_pair_elemIPNS_11__tree_nodeINS_12__value_typeINS_12basic_stringIcNS_11char_traitsIcEENS_9allocatorIcEEEEdEEPvEELi0ELb0EEC2B8ue170006IRSC_vEEOT_, symObjAddr: 0x8324, symBinAddr: 0x1000094F8, symSize: 0x24 }
  - { offsetInCU: 0x195E4, offset: 0x195E4, size: 0x8, addend: 0x0, symName: __ZNSt3__122__compressed_pair_elemINS_22__tree_node_destructorINS_9allocatorINS_11__tree_nodeINS_12__value_typeINS_12basic_stringIcNS_11char_traitsIcEENS2_IcEEEEdEEPvEEEEEELi1ELb0EEC2B8ue170006ISE_vEEOT_, symObjAddr: 0x8348, symBinAddr: 0x10000951C, symSize: 0x24 }
  - { offsetInCU: 0x19626, offset: 0x19626, size: 0x8, addend: 0x0, symName: __ZNSt3__19allocatorINS_11__tree_nodeINS_12__value_typeINS_12basic_stringIcNS_11char_traitsIcEENS0_IcEEEEdEEPvEEE9constructB8ue170006INS_4pairIKS7_dEEJRKNS_21piecewise_construct_tENS_5tupleIJRSE_EEENSJ_IJEEEEEEvPT_DpOT0_, symObjAddr: 0x836C, symBinAddr: 0x100009540, symSize: 0x44 }
  - { offsetInCU: 0x196A2, offset: 0x196A2, size: 0x8, addend: 0x0, symName: __ZNSt3__14pairIKNS_12basic_stringIcNS_11char_traitsIcEENS_9allocatorIcEEEEdEC1B8ue170006IJRS7_EJEEENS_21piecewise_construct_tENS_5tupleIJDpT_EEENSC_IJDpT0_EEE, symObjAddr: 0x83B0, symBinAddr: 0x100009584, symSize: 0x3C }
  - { offsetInCU: 0x19709, offset: 0x19709, size: 0x8, addend: 0x0, symName: __ZNSt3__14pairIKNS_12basic_stringIcNS_11char_traitsIcEENS_9allocatorIcEEEEdEC1B8ue170006IJRS7_EJEJLm0EEJEEENS_21piecewise_construct_tERNS_5tupleIJDpT_EEERNSC_IJDpT0_EEENS_15__tuple_indicesIJXspT1_EEEENSL_IJXspT2_EEEE, symObjAddr: 0x83EC, symBinAddr: 0x1000095C0, symSize: 0x3C }
  - { offsetInCU: 0x19799, offset: 0x19799, size: 0x8, addend: 0x0, symName: __ZNSt3__14pairIKNS_12basic_stringIcNS_11char_traitsIcEENS_9allocatorIcEEEEdEC2B8ue170006IJRS7_EJEJLm0EEJEEENS_21piecewise_construct_tERNS_5tupleIJDpT_EEERNSC_IJDpT0_EEENS_15__tuple_indicesIJXspT1_EEEENSL_IJXspT2_EEEE, symObjAddr: 0x8428, symBinAddr: 0x1000095FC, symSize: 0x4C }
  - { offsetInCU: 0x19829, offset: 0x19829, size: 0x8, addend: 0x0, symName: __ZNSt3__112__tuple_leafILm0ERKNS_12basic_stringIcNS_11char_traitsIcEENS_9allocatorIcEEEELb0EE3getB8ue170006Ev, symObjAddr: 0x8498, symBinAddr: 0x10000966C, symSize: 0x18 }
  - { offsetInCU: 0x1984F, offset: 0x1984F, size: 0x8, addend: 0x0, symName: __ZNKSt3__117__compressed_pairIPNS_11__tree_nodeINS_12__value_typeINS_12basic_stringIcNS_11char_traitsIcEENS_9allocatorIcEEEEdEEPvEENS_22__tree_node_destructorINS6_ISB_EEEEE5firstB8ue170006Ev, symObjAddr: 0x84B0, symBinAddr: 0x100009684, symSize: 0x24 }
  - { offsetInCU: 0x19875, offset: 0x19875, size: 0x8, addend: 0x0, symName: __ZNKSt3__122__compressed_pair_elemIPNS_11__tree_nodeINS_12__value_typeINS_12basic_stringIcNS_11char_traitsIcEENS_9allocatorIcEEEEdEEPvEELi0ELb0EE5__getB8ue170006Ev, symObjAddr: 0x84D4, symBinAddr: 0x1000096A8, symSize: 0x14 }
  - { offsetInCU: 0x1989B, offset: 0x1989B, size: 0x8, addend: 0x0, symName: __ZNSt3__117__compressed_pairIPNS_11__tree_nodeINS_12__value_typeINS_12basic_stringIcNS_11char_traitsIcEENS_9allocatorIcEEEEdEEPvEENS_22__tree_node_destructorINS6_ISB_EEEEE6secondB8ue170006Ev, symObjAddr: 0x84E8, symBinAddr: 0x1000096BC, symSize: 0x28 }
  - { offsetInCU: 0x198C1, offset: 0x198C1, size: 0x8, addend: 0x0, symName: __ZNSt3__122__compressed_pair_elemINS_22__tree_node_destructorINS_9allocatorINS_11__tree_nodeINS_12__value_typeINS_12basic_stringIcNS_11char_traitsIcEENS2_IcEEEEdEEPvEEEEEELi1ELb0EE5__getB8ue170006Ev, symObjAddr: 0x8510, symBinAddr: 0x1000096E4, symSize: 0x14 }
  - { offsetInCU: 0x198E7, offset: 0x198E7, size: 0x8, addend: 0x0, symName: __ZNSt3__16__treeINS_12__value_typeINS_12basic_stringIcNS_11char_traitsIcEENS_9allocatorIcEEEEdEENS_19__map_value_compareIS7_S8_NS_4lessIS7_EELb1EEENS5_IS8_EEE4sizeB8ue170006Ev, symObjAddr: 0x8524, symBinAddr: 0x1000096F8, symSize: 0x28 }
  - { offsetInCU: 0x1990D, offset: 0x1990D, size: 0x8, addend: 0x0, symName: __ZNSt3__117__compressed_pairImNS_19__map_value_compareINS_12basic_stringIcNS_11char_traitsIcEENS_9allocatorIcEEEENS_12__value_typeIS7_dEENS_4lessIS7_EELb1EEEE5firstB8ue170006Ev, symObjAddr: 0x854C, symBinAddr: 0x100009720, symSize: 0x24 }
  - { offsetInCU: 0x19933, offset: 0x19933, size: 0x8, addend: 0x0, symName: __ZNSt3__117__compressed_pairIPNS_11__tree_nodeINS_12__value_typeINS_12basic_stringIcNS_11char_traitsIcEENS_9allocatorIcEEEEdEEPvEENS_22__tree_node_destructorINS6_ISB_EEEEE5firstB8ue170006Ev, symObjAddr: 0x8570, symBinAddr: 0x100009744, symSize: 0x24 }
  - { offsetInCU: 0x19959, offset: 0x19959, size: 0x8, addend: 0x0, symName: __ZNSt3__122__compressed_pair_elemIPNS_11__tree_nodeINS_12__value_typeINS_12basic_stringIcNS_11char_traitsIcEENS_9allocatorIcEEEEdEEPvEELi0ELb0EE5__getB8ue170006Ev, symObjAddr: 0x8594, symBinAddr: 0x100009768, symSize: 0x14 }
  - { offsetInCU: 0x1997F, offset: 0x1997F, size: 0x8, addend: 0x0, symName: __ZNSt3__110unique_ptrINS_11__tree_nodeINS_12__value_typeINS_12basic_stringIcNS_11char_traitsIcEENS_9allocatorIcEEEEdEEPvEENS_22__tree_node_destructorINS6_ISB_EEEEED2B8ue170006Ev, symObjAddr: 0x85A8, symBinAddr: 0x10000977C, symSize: 0x30 }
  - { offsetInCU: 0x199A9, offset: 0x199A9, size: 0x8, addend: 0x0, symName: __ZNSt3__110unique_ptrINS_11__tree_nodeINS_12__value_typeINS_12basic_stringIcNS_11char_traitsIcEENS_9allocatorIcEEEEdEEPvEENS_22__tree_node_destructorINS6_ISB_EEEEE5resetB8ue170006EPSB_, symObjAddr: 0x85D8, symBinAddr: 0x1000097AC, symSize: 0x78 }
  - { offsetInCU: 0x199ED, offset: 0x199ED, size: 0x8, addend: 0x0, symName: __ZNSt3__122__tree_node_destructorINS_9allocatorINS_11__tree_nodeINS_12__value_typeINS_12basic_stringIcNS_11char_traitsIcEENS1_IcEEEEdEEPvEEEEEclB8ue170006EPSB_, symObjAddr: 0x8650, symBinAddr: 0x100009824, symSize: 0x94 }
  - { offsetInCU: 0x19A22, offset: 0x19A22, size: 0x8, addend: 0x0, symName: __ZNSt3__115__tree_iteratorINS_12__value_typeINS_12basic_stringIcNS_11char_traitsIcEENS_9allocatorIcEEEEdEEPNS_11__tree_nodeIS8_PvEElEC2B8ue170006ESC_, symObjAddr: 0x86E4, symBinAddr: 0x1000098B8, symSize: 0x20 }
  - { offsetInCU: 0x19A5B, offset: 0x19A5B, size: 0x8, addend: 0x0, symName: __ZNSt3__14pairINS_15__tree_iteratorINS_12__value_typeINS_12basic_stringIcNS_11char_traitsIcEENS_9allocatorIcEEEEdEEPNS_11__tree_nodeIS9_PvEElEEbEC2B8ue170006ISE_RbLSB_0EEEOT_OT0_, symObjAddr: 0x8704, symBinAddr: 0x1000098D8, symSize: 0x38 }
  - { offsetInCU: 0x19AB9, offset: 0x19AB9, size: 0x8, addend: 0x0, symName: __ZNSt3__15tupleIJRKNS_12basic_stringIcNS_11char_traitsIcEENS_9allocatorIcEEEEEEC1B8ue170006INS_4_AndELi0EEES8_, symObjAddr: 0x873C, symBinAddr: 0x100009910, symSize: 0x34 }
  - { offsetInCU: 0x19B01, offset: 0x19B01, size: 0x8, addend: 0x0, symName: __ZNSt3__15tupleIJRKNS_12basic_stringIcNS_11char_traitsIcEENS_9allocatorIcEEEEEEC2B8ue170006INS_4_AndELi0EEES8_, symObjAddr: 0x8770, symBinAddr: 0x100009944, symSize: 0x34 }
  - { offsetInCU: 0x19B49, offset: 0x19B49, size: 0x8, addend: 0x0, symName: __ZNSt3__112__tuple_implINS_15__tuple_indicesIJLm0EEEEJRKNS_12basic_stringIcNS_11char_traitsIcEENS_9allocatorIcEEEEEEC1B8ue170006IJLm0EEJSA_EJEJEJSA_EEENS1_IJXspT_EEEENS_13__tuple_typesIJDpT0_EEENS1_IJXspT1_EEEENSE_IJDpT2_EEEDpOT3_, symObjAddr: 0x87A4, symBinAddr: 0x100009978, symSize: 0x34 }
  - { offsetInCU: 0x19BDE, offset: 0x19BDE, size: 0x8, addend: 0x0, symName: __ZNSt3__112__tuple_implINS_15__tuple_indicesIJLm0EEEEJRKNS_12basic_stringIcNS_11char_traitsIcEENS_9allocatorIcEEEEEEC2B8ue170006IJLm0EEJSA_EJEJEJSA_EEENS1_IJXspT_EEEENS_13__tuple_typesIJDpT0_EEENS1_IJXspT1_EEEENSE_IJDpT2_EEEDpOT3_, symObjAddr: 0x87D8, symBinAddr: 0x1000099AC, symSize: 0x34 }
  - { offsetInCU: 0x19C73, offset: 0x19C73, size: 0x8, addend: 0x0, symName: __ZNSt3__112__tuple_leafILm0ERKNS_12basic_stringIcNS_11char_traitsIcEENS_9allocatorIcEEEELb0EEC2B8ue170006IS8_vEEOT_, symObjAddr: 0x880C, symBinAddr: 0x1000099E0, symSize: 0x20 }
  - { offsetInCU: 0x19CB6, offset: 0x19CB6, size: 0x8, addend: 0x0, symName: __ZNSt3__114pointer_traitsIPNS_12__value_typeINS_12basic_stringIcNS_11char_traitsIcEENS_9allocatorIcEEEEdEEE10pointer_toB8ue170006ERS8_, symObjAddr: 0x882C, symBinAddr: 0x100009A00, symSize: 0x14 }
  - { offsetInCU: 0x19CD9, offset: 0x19CD9, size: 0x8, addend: 0x0, symName: __ZNKSt3__115__tree_iteratorINS_12__value_typeINS_12basic_stringIcNS_11char_traitsIcEENS_9allocatorIcEEEEdEEPNS_11__tree_nodeIS8_PvEElE8__get_npB8ue170006Ev, symObjAddr: 0x8840, symBinAddr: 0x100009A14, symSize: 0x18 }
  - { offsetInCU: 0x19CFF, offset: 0x19CFF, size: 0x8, addend: 0x0, symName: __ZNSt3__16__treeINS_12__value_typeINS_12basic_stringIcNS_11char_traitsIcEENS_9allocatorIcEEEEcEENS_19__map_value_compareIS7_S8_NS_4lessIS7_EELb1EEENS5_IS8_EEE25__emplace_unique_key_argsIS7_JRKNS_21piecewise_construct_tENS_5tupleIJRKS7_EEENSJ_IJEEEEEENS_4pairINS_15__tree_iteratorIS8_PNS_11__tree_nodeIS8_PvEElEEbEERKT_DpOT0_, symObjAddr: 0x8858, symBinAddr: 0x100009A2C, symSize: 0x100 }
  - { offsetInCU: 0x19DD5, offset: 0x19DD5, size: 0x8, addend: 0x0, symName: __ZNKSt3__115__tree_iteratorINS_12__value_typeINS_12basic_stringIcNS_11char_traitsIcEENS_9allocatorIcEEEEcEEPNS_11__tree_nodeIS8_PvEElEptB8ue170006Ev, symObjAddr: 0x8958, symBinAddr: 0x100009B2C, symSize: 0x2C }
  - { offsetInCU: 0x19DFB, offset: 0x19DFB, size: 0x8, addend: 0x0, symName: __ZNSt3__16__treeINS_12__value_typeINS_12basic_stringIcNS_11char_traitsIcEENS_9allocatorIcEEEEcEENS_19__map_value_compareIS7_S8_NS_4lessIS7_EELb1EEENS5_IS8_EEE12__find_equalIS7_EERPNS_16__tree_node_baseIPvEERPNS_15__tree_end_nodeISJ_EERKT_, symObjAddr: 0x8984, symBinAddr: 0x100009B58, symSize: 0x184 }
  - { offsetInCU: 0x19E68, offset: 0x19E68, size: 0x8, addend: 0x0, symName: __ZNSt3__16__treeINS_12__value_typeINS_12basic_stringIcNS_11char_traitsIcEENS_9allocatorIcEEEEcEENS_19__map_value_compareIS7_S8_NS_4lessIS7_EELb1EEENS5_IS8_EEE16__construct_nodeIJRKNS_21piecewise_construct_tENS_5tupleIJRKS7_EEENSJ_IJEEEEEENS_10unique_ptrINS_11__tree_nodeIS8_PvEENS_22__tree_node_destructorINS5_ISR_EEEEEEDpOT_, symObjAddr: 0x8B08, symBinAddr: 0x100009CDC, symSize: 0x120 }
  - { offsetInCU: 0x19EF1, offset: 0x19EF1, size: 0x8, addend: 0x0, symName: __ZNSt3__16__treeINS_12__value_typeINS_12basic_stringIcNS_11char_traitsIcEENS_9allocatorIcEEEEcEENS_19__map_value_compareIS7_S8_NS_4lessIS7_EELb1EEENS5_IS8_EEE16__insert_node_atEPNS_15__tree_end_nodeIPNS_16__tree_node_baseIPvEEEERSJ_SJ_, symObjAddr: 0x8C28, symBinAddr: 0x100009DFC, symSize: 0xCC }
  - { offsetInCU: 0x19F46, offset: 0x19F46, size: 0x8, addend: 0x0, symName: __ZNKSt3__110unique_ptrINS_11__tree_nodeINS_12__value_typeINS_12basic_stringIcNS_11char_traitsIcEENS_9allocatorIcEEEEcEEPvEENS_22__tree_node_destructorINS6_ISB_EEEEE3getB8ue170006Ev, symObjAddr: 0x8CF4, symBinAddr: 0x100009EC8, symSize: 0x28 }
  - { offsetInCU: 0x19F6C, offset: 0x19F6C, size: 0x8, addend: 0x0, symName: __ZNSt3__110unique_ptrINS_11__tree_nodeINS_12__value_typeINS_12basic_stringIcNS_11char_traitsIcEENS_9allocatorIcEEEEcEEPvEENS_22__tree_node_destructorINS6_ISB_EEEEE7releaseB8ue170006Ev, symObjAddr: 0x8D1C, symBinAddr: 0x100009EF0, symSize: 0x44 }
  - { offsetInCU: 0x19FA1, offset: 0x19FA1, size: 0x8, addend: 0x0, symName: __ZNSt3__110unique_ptrINS_11__tree_nodeINS_12__value_typeINS_12basic_stringIcNS_11char_traitsIcEENS_9allocatorIcEEEEcEEPvEENS_22__tree_node_destructorINS6_ISB_EEEEED1B8ue170006Ev, symObjAddr: 0x8D60, symBinAddr: 0x100009F34, symSize: 0x2C }
  - { offsetInCU: 0x19FCB, offset: 0x19FCB, size: 0x8, addend: 0x0, symName: __ZNSt3__115__tree_iteratorINS_12__value_typeINS_12basic_stringIcNS_11char_traitsIcEENS_9allocatorIcEEEEcEEPNS_11__tree_nodeIS8_PvEElEC1B8ue170006ESC_, symObjAddr: 0x8D8C, symBinAddr: 0x100009F60, symSize: 0x34 }
  - { offsetInCU: 0x1A009, offset: 0x1A009, size: 0x8, addend: 0x0, symName: __ZNSt3__14pairINS_15__tree_iteratorINS_12__value_typeINS_12basic_stringIcNS_11char_traitsIcEENS_9allocatorIcEEEEcEEPNS_11__tree_nodeIS9_PvEElEEbEC1B8ue170006ISE_RbLSB_0EEEOT_OT0_, symObjAddr: 0x8DC0, symBinAddr: 0x100009F94, symSize: 0x3C }
  - { offsetInCU: 0x1A067, offset: 0x1A067, size: 0x8, addend: 0x0, symName: __ZNKSt3__16__treeINS_12__value_typeINS_12basic_stringIcNS_11char_traitsIcEENS_9allocatorIcEEEEcEENS_19__map_value_compareIS7_S8_NS_4lessIS7_EELb1EEENS5_IS8_EEE10__root_ptrB8ue170006Ev, symObjAddr: 0x8DFC, symBinAddr: 0x100009FD0, symSize: 0x24 }
  - { offsetInCU: 0x1A08D, offset: 0x1A08D, size: 0x8, addend: 0x0, symName: __ZNSt3__16__treeINS_12__value_typeINS_12basic_stringIcNS_11char_traitsIcEENS_9allocatorIcEEEEcEENS_19__map_value_compareIS7_S8_NS_4lessIS7_EELb1EEENS5_IS8_EEE10value_compB8ue170006Ev, symObjAddr: 0x8E20, symBinAddr: 0x100009FF4, symSize: 0x28 }
  - { offsetInCU: 0x1A0B3, offset: 0x1A0B3, size: 0x8, addend: 0x0, symName: __ZNKSt3__119__map_value_compareINS_12basic_stringIcNS_11char_traitsIcEENS_9allocatorIcEEEENS_12__value_typeIS6_cEENS_4lessIS6_EELb1EEclB8ue170006ERKS6_RKS8_, symObjAddr: 0x8E48, symBinAddr: 0x10000A01C, symSize: 0x50 }
  - { offsetInCU: 0x1A0F7, offset: 0x1A0F7, size: 0x8, addend: 0x0, symName: __ZNKSt3__119__map_value_compareINS_12basic_stringIcNS_11char_traitsIcEENS_9allocatorIcEEEENS_12__value_typeIS6_cEENS_4lessIS6_EELb1EEclB8ue170006ERKS8_RKS6_, symObjAddr: 0x8E98, symBinAddr: 0x10000A06C, symSize: 0x48 }
  - { offsetInCU: 0x1A13B, offset: 0x1A13B, size: 0x8, addend: 0x0, symName: __ZNSt3__117__compressed_pairImNS_19__map_value_compareINS_12basic_stringIcNS_11char_traitsIcEENS_9allocatorIcEEEENS_12__value_typeIS7_cEENS_4lessIS7_EELb1EEEE6secondB8ue170006Ev, symObjAddr: 0x8EE0, symBinAddr: 0x10000A0B4, symSize: 0x24 }
  - { offsetInCU: 0x1A161, offset: 0x1A161, size: 0x8, addend: 0x0, symName: __ZNSt3__122__compressed_pair_elemINS_19__map_value_compareINS_12basic_stringIcNS_11char_traitsIcEENS_9allocatorIcEEEENS_12__value_typeIS7_cEENS_4lessIS7_EELb1EEELi1ELb1EE5__getB8ue170006Ev, symObjAddr: 0x8F04, symBinAddr: 0x10000A0D8, symSize: 0x14 }
  - { offsetInCU: 0x1A187, offset: 0x1A187, size: 0x8, addend: 0x0, symName: __ZNKSt3__112__value_typeINS_12basic_stringIcNS_11char_traitsIcEENS_9allocatorIcEEEEcE11__get_valueB8ue170006Ev, symObjAddr: 0x8F18, symBinAddr: 0x10000A0EC, symSize: 0x14 }
  - { offsetInCU: 0x1A1AD, offset: 0x1A1AD, size: 0x8, addend: 0x0, symName: __ZNSt3__116allocator_traitsINS_9allocatorINS_11__tree_nodeINS_12__value_typeINS_12basic_stringIcNS_11char_traitsIcEENS1_IcEEEEcEEPvEEEEE8allocateB8ue170006ERSC_m, symObjAddr: 0x8F2C, symBinAddr: 0x10000A100, symSize: 0x2C }
  - { offsetInCU: 0x1A1E0, offset: 0x1A1E0, size: 0x8, addend: 0x0, symName: __ZNSt3__122__tree_node_destructorINS_9allocatorINS_11__tree_nodeINS_12__value_typeINS_12basic_stringIcNS_11char_traitsIcEENS1_IcEEEEcEEPvEEEEEC1B8ue170006ERSC_b, symObjAddr: 0x8F58, symBinAddr: 0x10000A12C, symSize: 0x48 }
  - { offsetInCU: 0x1A22D, offset: 0x1A22D, size: 0x8, addend: 0x0, symName: __ZNSt3__110unique_ptrINS_11__tree_nodeINS_12__value_typeINS_12basic_stringIcNS_11char_traitsIcEENS_9allocatorIcEEEEcEEPvEENS_22__tree_node_destructorINS6_ISB_EEEEEC1B8ue170006ILb1EvEEPSB_NS_16__dependent_typeINS_27__unique_ptr_deleter_sfinaeISE_EEXT_EE20__good_rval_ref_typeE, symObjAddr: 0x8FA0, symBinAddr: 0x10000A174, symSize: 0x3C }
  - { offsetInCU: 0x1A27E, offset: 0x1A27E, size: 0x8, addend: 0x0, symName: __ZNSt3__116allocator_traitsINS_9allocatorINS_11__tree_nodeINS_12__value_typeINS_12basic_stringIcNS_11char_traitsIcEENS1_IcEEEEcEEPvEEEEE9constructB8ue170006INS_4pairIKS8_cEEJRKNS_21piecewise_construct_tENS_5tupleIJRSG_EEENSL_IJEEEEvEEvRSC_PT_DpOT0_, symObjAddr: 0x8FDC, symBinAddr: 0x10000A1B0, symSize: 0x44 }
  - { offsetInCU: 0x1A2FD, offset: 0x1A2FD, size: 0x8, addend: 0x0, symName: __ZNKSt3__110unique_ptrINS_11__tree_nodeINS_12__value_typeINS_12basic_stringIcNS_11char_traitsIcEENS_9allocatorIcEEEEcEEPvEENS_22__tree_node_destructorINS6_ISB_EEEEEptB8ue170006Ev, symObjAddr: 0x9020, symBinAddr: 0x10000A1F4, symSize: 0x28 }
  - { offsetInCU: 0x1A323, offset: 0x1A323, size: 0x8, addend: 0x0, symName: __ZNSt3__110unique_ptrINS_11__tree_nodeINS_12__value_typeINS_12basic_stringIcNS_11char_traitsIcEENS_9allocatorIcEEEEcEEPvEENS_22__tree_node_destructorINS6_ISB_EEEEE11get_deleterB8ue170006Ev, symObjAddr: 0x9048, symBinAddr: 0x10000A21C, symSize: 0x24 }
  - { offsetInCU: 0x1A349, offset: 0x1A349, size: 0x8, addend: 0x0, symName: __ZNSt3__19allocatorINS_11__tree_nodeINS_12__value_typeINS_12basic_stringIcNS_11char_traitsIcEENS0_IcEEEEcEEPvEEE8allocateB8ue170006Em, symObjAddr: 0x906C, symBinAddr: 0x10000A240, symSize: 0x58 }
  - { offsetInCU: 0x1A387, offset: 0x1A387, size: 0x8, addend: 0x0, symName: __ZNSt3__116allocator_traitsINS_9allocatorINS_11__tree_nodeINS_12__value_typeINS_12basic_stringIcNS_11char_traitsIcEENS1_IcEEEEcEEPvEEEEE8max_sizeB8ue170006ISC_vEEmRKSC_, symObjAddr: 0x90C4, symBinAddr: 0x10000A298, symSize: 0x24 }
  - { offsetInCU: 0x1A3B5, offset: 0x1A3B5, size: 0x8, addend: 0x0, symName: __ZNKSt3__19allocatorINS_11__tree_nodeINS_12__value_typeINS_12basic_stringIcNS_11char_traitsIcEENS0_IcEEEEcEEPvEEE8max_sizeB8ue170006Ev, symObjAddr: 0x90E8, symBinAddr: 0x10000A2BC, symSize: 0x14 }
  - { offsetInCU: 0x1A3DB, offset: 0x1A3DB, size: 0x8, addend: 0x0, symName: __ZNSt3__122__tree_node_destructorINS_9allocatorINS_11__tree_nodeINS_12__value_typeINS_12basic_stringIcNS_11char_traitsIcEENS1_IcEEEEcEEPvEEEEEC2B8ue170006ERSC_b, symObjAddr: 0x90FC, symBinAddr: 0x10000A2D0, symSize: 0x38 }
  - { offsetInCU: 0x1A423, offset: 0x1A423, size: 0x8, addend: 0x0, symName: __ZNSt3__110unique_ptrINS_11__tree_nodeINS_12__value_typeINS_12basic_stringIcNS_11char_traitsIcEENS_9allocatorIcEEEEcEEPvEENS_22__tree_node_destructorINS6_ISB_EEEEEC2B8ue170006ILb1EvEEPSB_NS_16__dependent_typeINS_27__unique_ptr_deleter_sfinaeISE_EEXT_EE20__good_rval_ref_typeE, symObjAddr: 0x9134, symBinAddr: 0x10000A308, symSize: 0x48 }
  - { offsetInCU: 0x1A474, offset: 0x1A474, size: 0x8, addend: 0x0, symName: __ZNSt3__117__compressed_pairIPNS_11__tree_nodeINS_12__value_typeINS_12basic_stringIcNS_11char_traitsIcEENS_9allocatorIcEEEEcEEPvEENS_22__tree_node_destructorINS6_ISB_EEEEEC1B8ue170006IRSC_SF_EEOT_OT0_, symObjAddr: 0x917C, symBinAddr: 0x10000A350, symSize: 0x3C }
  - { offsetInCU: 0x1A4CC, offset: 0x1A4CC, size: 0x8, addend: 0x0, symName: __ZNSt3__117__compressed_pairIPNS_11__tree_nodeINS_12__value_typeINS_12basic_stringIcNS_11char_traitsIcEENS_9allocatorIcEEEEcEEPvEENS_22__tree_node_destructorINS6_ISB_EEEEEC2B8ue170006IRSC_SF_EEOT_OT0_, symObjAddr: 0x91B8, symBinAddr: 0x10000A38C, symSize: 0x48 }
  - { offsetInCU: 0x1A524, offset: 0x1A524, size: 0x8, addend: 0x0, symName: __ZNSt3__122__compressed_pair_elemIPNS_11__tree_nodeINS_12__value_typeINS_12basic_stringIcNS_11char_traitsIcEENS_9allocatorIcEEEEcEEPvEELi0ELb0EEC2B8ue170006IRSC_vEEOT_, symObjAddr: 0x9200, symBinAddr: 0x10000A3D4, symSize: 0x24 }
  - { offsetInCU: 0x1A566, offset: 0x1A566, size: 0x8, addend: 0x0, symName: __ZNSt3__122__compressed_pair_elemINS_22__tree_node_destructorINS_9allocatorINS_11__tree_nodeINS_12__value_typeINS_12basic_stringIcNS_11char_traitsIcEENS2_IcEEEEcEEPvEEEEEELi1ELb0EEC2B8ue170006ISE_vEEOT_, symObjAddr: 0x9224, symBinAddr: 0x10000A3F8, symSize: 0x24 }
  - { offsetInCU: 0x1A5A8, offset: 0x1A5A8, size: 0x8, addend: 0x0, symName: __ZNSt3__19allocatorINS_11__tree_nodeINS_12__value_typeINS_12basic_stringIcNS_11char_traitsIcEENS0_IcEEEEcEEPvEEE9constructB8ue170006INS_4pairIKS7_cEEJRKNS_21piecewise_construct_tENS_5tupleIJRSE_EEENSJ_IJEEEEEEvPT_DpOT0_, symObjAddr: 0x9248, symBinAddr: 0x10000A41C, symSize: 0x44 }
  - { offsetInCU: 0x1A624, offset: 0x1A624, size: 0x8, addend: 0x0, symName: __ZNSt3__14pairIKNS_12basic_stringIcNS_11char_traitsIcEENS_9allocatorIcEEEEcEC1B8ue170006IJRS7_EJEEENS_21piecewise_construct_tENS_5tupleIJDpT_EEENSC_IJDpT0_EEE, symObjAddr: 0x928C, symBinAddr: 0x10000A460, symSize: 0x3C }
  - { offsetInCU: 0x1A68B, offset: 0x1A68B, size: 0x8, addend: 0x0, symName: __ZNSt3__14pairIKNS_12basic_stringIcNS_11char_traitsIcEENS_9allocatorIcEEEEcEC1B8ue170006IJRS7_EJEJLm0EEJEEENS_21piecewise_construct_tERNS_5tupleIJDpT_EEERNSC_IJDpT0_EEENS_15__tuple_indicesIJXspT1_EEEENSL_IJXspT2_EEEE, symObjAddr: 0x92C8, symBinAddr: 0x10000A49C, symSize: 0x3C }
  - { offsetInCU: 0x1A71B, offset: 0x1A71B, size: 0x8, addend: 0x0, symName: __ZNSt3__14pairIKNS_12basic_stringIcNS_11char_traitsIcEENS_9allocatorIcEEEEcEC2B8ue170006IJRS7_EJEJLm0EEJEEENS_21piecewise_construct_tERNS_5tupleIJDpT_EEERNSC_IJDpT0_EEENS_15__tuple_indicesIJXspT1_EEEENSL_IJXspT2_EEEE, symObjAddr: 0x9304, symBinAddr: 0x10000A4D8, symSize: 0x48 }
  - { offsetInCU: 0x1A7AB, offset: 0x1A7AB, size: 0x8, addend: 0x0, symName: __ZNKSt3__117__compressed_pairIPNS_11__tree_nodeINS_12__value_typeINS_12basic_stringIcNS_11char_traitsIcEENS_9allocatorIcEEEEcEEPvEENS_22__tree_node_destructorINS6_ISB_EEEEE5firstB8ue170006Ev, symObjAddr: 0x934C, symBinAddr: 0x10000A520, symSize: 0x24 }
  - { offsetInCU: 0x1A7D1, offset: 0x1A7D1, size: 0x8, addend: 0x0, symName: __ZNKSt3__122__compressed_pair_elemIPNS_11__tree_nodeINS_12__value_typeINS_12basic_stringIcNS_11char_traitsIcEENS_9allocatorIcEEEEcEEPvEELi0ELb0EE5__getB8ue170006Ev, symObjAddr: 0x9370, symBinAddr: 0x10000A544, symSize: 0x14 }
  - { offsetInCU: 0x1A7F7, offset: 0x1A7F7, size: 0x8, addend: 0x0, symName: __ZNSt3__117__compressed_pairIPNS_11__tree_nodeINS_12__value_typeINS_12basic_stringIcNS_11char_traitsIcEENS_9allocatorIcEEEEcEEPvEENS_22__tree_node_destructorINS6_ISB_EEEEE6secondB8ue170006Ev, symObjAddr: 0x9384, symBinAddr: 0x10000A558, symSize: 0x28 }
  - { offsetInCU: 0x1A81D, offset: 0x1A81D, size: 0x8, addend: 0x0, symName: __ZNSt3__122__compressed_pair_elemINS_22__tree_node_destructorINS_9allocatorINS_11__tree_nodeINS_12__value_typeINS_12basic_stringIcNS_11char_traitsIcEENS2_IcEEEEcEEPvEEEEEELi1ELb0EE5__getB8ue170006Ev, symObjAddr: 0x93AC, symBinAddr: 0x10000A580, symSize: 0x14 }
  - { offsetInCU: 0x1A843, offset: 0x1A843, size: 0x8, addend: 0x0, symName: __ZNSt3__16__treeINS_12__value_typeINS_12basic_stringIcNS_11char_traitsIcEENS_9allocatorIcEEEEcEENS_19__map_value_compareIS7_S8_NS_4lessIS7_EELb1EEENS5_IS8_EEE4sizeB8ue170006Ev, symObjAddr: 0x93C0, symBinAddr: 0x10000A594, symSize: 0x28 }
  - { offsetInCU: 0x1A869, offset: 0x1A869, size: 0x8, addend: 0x0, symName: __ZNSt3__117__compressed_pairImNS_19__map_value_compareINS_12basic_stringIcNS_11char_traitsIcEENS_9allocatorIcEEEENS_12__value_typeIS7_cEENS_4lessIS7_EELb1EEEE5firstB8ue170006Ev, symObjAddr: 0x93E8, symBinAddr: 0x10000A5BC, symSize: 0x24 }
  - { offsetInCU: 0x1A88F, offset: 0x1A88F, size: 0x8, addend: 0x0, symName: __ZNSt3__117__compressed_pairIPNS_11__tree_nodeINS_12__value_typeINS_12basic_stringIcNS_11char_traitsIcEENS_9allocatorIcEEEEcEEPvEENS_22__tree_node_destructorINS6_ISB_EEEEE5firstB8ue170006Ev, symObjAddr: 0x940C, symBinAddr: 0x10000A5E0, symSize: 0x24 }
  - { offsetInCU: 0x1A8B5, offset: 0x1A8B5, size: 0x8, addend: 0x0, symName: __ZNSt3__122__compressed_pair_elemIPNS_11__tree_nodeINS_12__value_typeINS_12basic_stringIcNS_11char_traitsIcEENS_9allocatorIcEEEEcEEPvEELi0ELb0EE5__getB8ue170006Ev, symObjAddr: 0x9430, symBinAddr: 0x10000A604, symSize: 0x14 }
  - { offsetInCU: 0x1A8DB, offset: 0x1A8DB, size: 0x8, addend: 0x0, symName: __ZNSt3__110unique_ptrINS_11__tree_nodeINS_12__value_typeINS_12basic_stringIcNS_11char_traitsIcEENS_9allocatorIcEEEEcEEPvEENS_22__tree_node_destructorINS6_ISB_EEEEED2B8ue170006Ev, symObjAddr: 0x9444, symBinAddr: 0x10000A618, symSize: 0x30 }
  - { offsetInCU: 0x1A905, offset: 0x1A905, size: 0x8, addend: 0x0, symName: __ZNSt3__110unique_ptrINS_11__tree_nodeINS_12__value_typeINS_12basic_stringIcNS_11char_traitsIcEENS_9allocatorIcEEEEcEEPvEENS_22__tree_node_destructorINS6_ISB_EEEEE5resetB8ue170006EPSB_, symObjAddr: 0x9474, symBinAddr: 0x10000A648, symSize: 0x78 }
  - { offsetInCU: 0x1A949, offset: 0x1A949, size: 0x8, addend: 0x0, symName: __ZNSt3__122__tree_node_destructorINS_9allocatorINS_11__tree_nodeINS_12__value_typeINS_12basic_stringIcNS_11char_traitsIcEENS1_IcEEEEcEEPvEEEEEclB8ue170006EPSB_, symObjAddr: 0x94EC, symBinAddr: 0x10000A6C0, symSize: 0x94 }
  - { offsetInCU: 0x1A97E, offset: 0x1A97E, size: 0x8, addend: 0x0, symName: __ZNSt3__115__tree_iteratorINS_12__value_typeINS_12basic_stringIcNS_11char_traitsIcEENS_9allocatorIcEEEEcEEPNS_11__tree_nodeIS8_PvEElEC2B8ue170006ESC_, symObjAddr: 0x9580, symBinAddr: 0x10000A754, symSize: 0x20 }
  - { offsetInCU: 0x1A9B7, offset: 0x1A9B7, size: 0x8, addend: 0x0, symName: __ZNSt3__14pairINS_15__tree_iteratorINS_12__value_typeINS_12basic_stringIcNS_11char_traitsIcEENS_9allocatorIcEEEEcEEPNS_11__tree_nodeIS9_PvEElEEbEC2B8ue170006ISE_RbLSB_0EEEOT_OT0_, symObjAddr: 0x95A0, symBinAddr: 0x10000A774, symSize: 0x38 }
  - { offsetInCU: 0x1AA15, offset: 0x1AA15, size: 0x8, addend: 0x0, symName: __ZNSt3__114pointer_traitsIPNS_12__value_typeINS_12basic_stringIcNS_11char_traitsIcEENS_9allocatorIcEEEEcEEE10pointer_toB8ue170006ERS8_, symObjAddr: 0x95D8, symBinAddr: 0x10000A7AC, symSize: 0x14 }
  - { offsetInCU: 0x1AA38, offset: 0x1AA38, size: 0x8, addend: 0x0, symName: __ZNKSt3__115__tree_iteratorINS_12__value_typeINS_12basic_stringIcNS_11char_traitsIcEENS_9allocatorIcEEEEcEEPNS_11__tree_nodeIS8_PvEElE8__get_npB8ue170006Ev, symObjAddr: 0x95EC, symBinAddr: 0x10000A7C0, symSize: 0x18 }
  - { offsetInCU: 0x1AA5E, offset: 0x1AA5E, size: 0x8, addend: 0x0, symName: __ZNSt3__18ios_base9precisionB8ue170006El, symObjAddr: 0x9604, symBinAddr: 0x10000A7D8, symSize: 0x2C }
  - { offsetInCU: 0x1AAA4, offset: 0x1AAA4, size: 0x8, addend: 0x0, symName: __ZNSt3__112basic_stringIcNS_11char_traitsIcEENS_9allocatorIcEEEC2B8ue170006Ev, symObjAddr: 0x9630, symBinAddr: 0x10000A804, symSize: 0x48 }
  - { offsetInCU: 0x1AACE, offset: 0x1AACE, size: 0x8, addend: 0x0, symName: __ZNSt3__112basic_stringIcNS_11char_traitsIcEENS_9allocatorIcEEE14__default_initB8ue170006Ev, symObjAddr: 0x9678, symBinAddr: 0x10000A84C, symSize: 0x40 }
  - { offsetInCU: 0x1AAF4, offset: 0x1AAF4, size: 0x8, addend: 0x0, symName: __ZNSt3__117__compressed_pairINS_12basic_stringIcNS_11char_traitsIcEENS_9allocatorIcEEE5__repES5_E5firstB8ue170006Ev, symObjAddr: 0x96B8, symBinAddr: 0x10000A88C, symSize: 0x24 }
  - { offsetInCU: 0x1AB1A, offset: 0x1AB1A, size: 0x8, addend: 0x0, symName: __ZNSt3__122__compressed_pair_elemINS_12basic_stringIcNS_11char_traitsIcEENS_9allocatorIcEEE5__repELi0ELb0EE5__getB8ue170006Ev, symObjAddr: 0x96DC, symBinAddr: 0x10000A8B0, symSize: 0x14 }
  - { offsetInCU: 0x1AB40, offset: 0x1AB40, size: 0x8, addend: 0x0, symName: __ZNSt3__16__treeINS_12__value_typeINS_12basic_stringIcNS_11char_traitsIcEENS_9allocatorIcEEEEdEENS_19__map_value_compareIS7_S8_NS_4lessIS7_EELb1EEENS5_IS8_EEE5beginB8ue170006Ev, symObjAddr: 0x96F0, symBinAddr: 0x10000A8C4, symSize: 0x34 }
  - { offsetInCU: 0x1AB66, offset: 0x1AB66, size: 0x8, addend: 0x0, symName: __ZNSt3__114__map_iteratorINS_15__tree_iteratorINS_12__value_typeINS_12basic_stringIcNS_11char_traitsIcEENS_9allocatorIcEEEEdEEPNS_11__tree_nodeIS9_PvEElEEEC1B8ue170006ESE_, symObjAddr: 0x9724, symBinAddr: 0x10000A8F8, symSize: 0x34 }
  - { offsetInCU: 0x1AB9F, offset: 0x1AB9F, size: 0x8, addend: 0x0, symName: __ZNSt3__115__tree_iteratorINS_12__value_typeINS_12basic_stringIcNS_11char_traitsIcEENS_9allocatorIcEEEEdEEPNS_11__tree_nodeIS8_PvEElEC1B8ue170006EPNS_15__tree_end_nodeIPNS_16__tree_node_baseISA_EEEE, symObjAddr: 0x9758, symBinAddr: 0x10000A92C, symSize: 0x34 }
  - { offsetInCU: 0x1ABD8, offset: 0x1ABD8, size: 0x8, addend: 0x0, symName: __ZNSt3__115__tree_iteratorINS_12__value_typeINS_12basic_stringIcNS_11char_traitsIcEENS_9allocatorIcEEEEdEEPNS_11__tree_nodeIS8_PvEElEC2B8ue170006EPNS_15__tree_end_nodeIPNS_16__tree_node_baseISA_EEEE, symObjAddr: 0x978C, symBinAddr: 0x10000A960, symSize: 0x20 }
  - { offsetInCU: 0x1AC11, offset: 0x1AC11, size: 0x8, addend: 0x0, symName: __ZNSt3__114__map_iteratorINS_15__tree_iteratorINS_12__value_typeINS_12basic_stringIcNS_11char_traitsIcEENS_9allocatorIcEEEEdEEPNS_11__tree_nodeIS9_PvEElEEEC2B8ue170006ESE_, symObjAddr: 0x97AC, symBinAddr: 0x10000A980, symSize: 0x20 }
  - { offsetInCU: 0x1AC4A, offset: 0x1AC4A, size: 0x8, addend: 0x0, symName: __ZNSt3__16__treeINS_12__value_typeINS_12basic_stringIcNS_11char_traitsIcEENS_9allocatorIcEEEEdEENS_19__map_value_compareIS7_S8_NS_4lessIS7_EELb1EEENS5_IS8_EEE3endB8ue170006Ev, symObjAddr: 0x97CC, symBinAddr: 0x10000A9A0, symSize: 0x34 }
  - { offsetInCU: 0x1AC70, offset: 0x1AC70, size: 0x8, addend: 0x0, symName: __ZNSt3__115__tree_iteratorINS_12__value_typeINS_12basic_stringIcNS_11char_traitsIcEENS_9allocatorIcEEEEdEEPNS_11__tree_nodeIS8_PvEElEppB8ue170006Ev, symObjAddr: 0x9864, symBinAddr: 0x10000AA38, symSize: 0x38 }
  - { offsetInCU: 0x1AC96, offset: 0x1AC96, size: 0x8, addend: 0x0, symName: __ZNSt3__16__treeINS_12__value_typeIcNS_12basic_stringIcNS_11char_traitsIcEENS_9allocatorIcEEEEEENS_19__map_value_compareIcS8_NS_4lessIcEELb1EEENS5_IS8_EEE25__emplace_unique_key_argsIcJRKNS_21piecewise_construct_tENS_5tupleIJRKcEEENSJ_IJEEEEEENS_4pairINS_15__tree_iteratorIS8_PNS_11__tree_nodeIS8_PvEElEEbEERKT_DpOT0_, symObjAddr: 0x989C, symBinAddr: 0x10000AA70, symSize: 0x100 }
  - { offsetInCU: 0x1AD6C, offset: 0x1AD6C, size: 0x8, addend: 0x0, symName: __ZNKSt3__115__tree_iteratorINS_12__value_typeIcNS_12basic_stringIcNS_11char_traitsIcEENS_9allocatorIcEEEEEEPNS_11__tree_nodeIS8_PvEElEptB8ue170006Ev, symObjAddr: 0x99C8, symBinAddr: 0x10000AB9C, symSize: 0x2C }
  - { offsetInCU: 0x1AD92, offset: 0x1AD92, size: 0x8, addend: 0x0, symName: __ZNSt3__16__treeINS_12__value_typeIcNS_12basic_stringIcNS_11char_traitsIcEENS_9allocatorIcEEEEEENS_19__map_value_compareIcS8_NS_4lessIcEELb1EEENS5_IS8_EEE16__construct_nodeIJRKNS_21piecewise_construct_tENS_5tupleIJRKcEEENSJ_IJEEEEEENS_10unique_ptrINS_11__tree_nodeIS8_PvEENS_22__tree_node_destructorINS5_ISR_EEEEEEDpOT_, symObjAddr: 0x99F4, symBinAddr: 0x10000ABC8, symSize: 0x120 }
  - { offsetInCU: 0x1AE1B, offset: 0x1AE1B, size: 0x8, addend: 0x0, symName: __ZNSt3__116allocator_traitsINS_9allocatorINS_11__tree_nodeINS_12__value_typeIcNS_12basic_stringIcNS_11char_traitsIcEENS1_IcEEEEEEPvEEEEE9constructB8ue170006INS_4pairIKcS8_EEJRKNS_21piecewise_construct_tENS_5tupleIJRSG_EEENSL_IJEEEEvEEvRSC_PT_DpOT0_, symObjAddr: 0x9B14, symBinAddr: 0x10000ACE8, symSize: 0x44 }
  - { offsetInCU: 0x1AE9A, offset: 0x1AE9A, size: 0x8, addend: 0x0, symName: __ZNSt3__19allocatorINS_11__tree_nodeINS_12__value_typeIcNS_12basic_stringIcNS_11char_traitsIcEENS0_IcEEEEEEPvEEE9constructB8ue170006INS_4pairIKcS7_EEJRKNS_21piecewise_construct_tENS_5tupleIJRSE_EEENSJ_IJEEEEEEvPT_DpOT0_, symObjAddr: 0x9B58, symBinAddr: 0x10000AD2C, symSize: 0x44 }
  - { offsetInCU: 0x1AF16, offset: 0x1AF16, size: 0x8, addend: 0x0, symName: __ZNSt3__14pairIKcNS_12basic_stringIcNS_11char_traitsIcEENS_9allocatorIcEEEEEC1B8ue170006IJRS1_EJEEENS_21piecewise_construct_tENS_5tupleIJDpT_EEENSC_IJDpT0_EEE, symObjAddr: 0x9B9C, symBinAddr: 0x10000AD70, symSize: 0x44 }
  - { offsetInCU: 0x1AF7D, offset: 0x1AF7D, size: 0x8, addend: 0x0, symName: __ZNSt3__14pairIKcNS_12basic_stringIcNS_11char_traitsIcEENS_9allocatorIcEEEEEC1B8ue170006IJRS1_EJEJLm0EEJEEENS_21piecewise_construct_tERNS_5tupleIJDpT_EEERNSC_IJDpT0_EEENS_15__tuple_indicesIJXspT1_EEEENSL_IJXspT2_EEEE, symObjAddr: 0x9BE0, symBinAddr: 0x10000ADB4, symSize: 0x3C }
  - { offsetInCU: 0x1B00D, offset: 0x1B00D, size: 0x8, addend: 0x0, symName: __ZNSt3__14pairIKcNS_12basic_stringIcNS_11char_traitsIcEENS_9allocatorIcEEEEEC2B8ue170006IJRS1_EJEJLm0EEJEEENS_21piecewise_construct_tERNS_5tupleIJDpT_EEERNSC_IJDpT0_EEENS_15__tuple_indicesIJXspT1_EEEENSL_IJXspT2_EEEE, symObjAddr: 0x9C1C, symBinAddr: 0x10000ADF0, symSize: 0x4C }
  - { offsetInCU: 0x1B09D, offset: 0x1B09D, size: 0x8, addend: 0x0, symName: __ZNSt3__112__tuple_leafILm0ERKcLb0EE3getB8ue170006Ev, symObjAddr: 0x9C8C, symBinAddr: 0x10000AE60, symSize: 0x18 }
  - { offsetInCU: 0x1B0C3, offset: 0x1B0C3, size: 0x8, addend: 0x0, symName: __ZNSt3__15tupleIJRKcEEC1B8ue170006INS_4_AndELi0EEES2_, symObjAddr: 0x9CA4, symBinAddr: 0x10000AE78, symSize: 0x34 }
  - { offsetInCU: 0x1B10B, offset: 0x1B10B, size: 0x8, addend: 0x0, symName: __ZNSt3__15tupleIJRKcEEC2B8ue170006INS_4_AndELi0EEES2_, symObjAddr: 0x9CD8, symBinAddr: 0x10000AEAC, symSize: 0x34 }
  - { offsetInCU: 0x1B153, offset: 0x1B153, size: 0x8, addend: 0x0, symName: __ZNSt3__112__tuple_implINS_15__tuple_indicesIJLm0EEEEJRKcEEC1B8ue170006IJLm0EEJS4_EJEJEJS4_EEENS1_IJXspT_EEEENS_13__tuple_typesIJDpT0_EEENS1_IJXspT1_EEEENS8_IJDpT2_EEEDpOT3_, symObjAddr: 0x9D0C, symBinAddr: 0x10000AEE0, symSize: 0x34 }
  - { offsetInCU: 0x1B1E8, offset: 0x1B1E8, size: 0x8, addend: 0x0, symName: __ZNSt3__112__tuple_implINS_15__tuple_indicesIJLm0EEEEJRKcEEC2B8ue170006IJLm0EEJS4_EJEJEJS4_EEENS1_IJXspT_EEEENS_13__tuple_typesIJDpT0_EEENS1_IJXspT1_EEEENS8_IJDpT2_EEEDpOT3_, symObjAddr: 0x9D40, symBinAddr: 0x10000AF14, symSize: 0x34 }
  - { offsetInCU: 0x1B27D, offset: 0x1B27D, size: 0x8, addend: 0x0, symName: __ZNSt3__112__tuple_leafILm0ERKcLb0EEC2B8ue170006IS2_vEEOT_, symObjAddr: 0x9D74, symBinAddr: 0x10000AF48, symSize: 0x20 }
  - { offsetInCU: 0x1B2C0, offset: 0x1B2C0, size: 0x8, addend: 0x0, symName: __ZNSt3__114pointer_traitsIPNS_12__value_typeIcNS_12basic_stringIcNS_11char_traitsIcEENS_9allocatorIcEEEEEEE10pointer_toB8ue170006ERS8_, symObjAddr: 0x9D94, symBinAddr: 0x10000AF68, symSize: 0x14 }
  - { offsetInCU: 0x1B2E3, offset: 0x1B2E3, size: 0x8, addend: 0x0, symName: __ZNKSt3__16__treeINS_12__value_typeINS_12basic_stringIcNS_11char_traitsIcEENS_9allocatorIcEEEEdEENS_19__map_value_compareIS7_S8_NS_4lessIS7_EELb1EEENS5_IS8_EEE4sizeB8ue170006Ev, symObjAddr: 0x9DA8, symBinAddr: 0x10000AF7C, symSize: 0x28 }
  - { offsetInCU: 0x1B309, offset: 0x1B309, size: 0x8, addend: 0x0, symName: __ZNKSt3__117__compressed_pairImNS_19__map_value_compareINS_12basic_stringIcNS_11char_traitsIcEENS_9allocatorIcEEEENS_12__value_typeIS7_dEENS_4lessIS7_EELb1EEEE5firstB8ue170006Ev, symObjAddr: 0x9DD0, symBinAddr: 0x10000AFA4, symSize: 0x24 }
  - { offsetInCU: 0x1B32F, offset: 0x1B32F, size: 0x8, addend: 0x0, symName: __ZNKSt3__122__compressed_pair_elemImLi0ELb0EE5__getB8ue170006Ev, symObjAddr: 0x9DF4, symBinAddr: 0x10000AFC8, symSize: 0x14 }
...
